---
triple:          'arm64-apple-darwin'
binary-path:     a.out
relocations:
  - { offsetInCU: 0x7325, offset: 0x7325, size: 0x8, addend: 0x0, symName: __ZN5Eigen8internal37evaluateProductBlockingSizesHeuristicIddLi1ElEEvRT2_S3_S3_S2_, symObjAddr: 0x5C3C, symBinAddr: 0x1000071DC, symSize: 0x38C }
  - { offsetInCU: 0x14748, offset: 0x14748, size: 0x8, addend: 0x0, symName: __ZN5Eigen8internal28conditional_aligned_new_autoIdLb1EEEPT_m, symObjAddr: 0x2D14, symBinAddr: 0x1000042B4, symSize: 0x68 }
  - { offsetInCU: 0x1489E, offset: 0x1489E, size: 0x8, addend: 0x0, symName: __ZN5Eigen8internal28conditional_aligned_new_autoIiLb1EEEPT_m, symObjAddr: 0x32E8, symBinAddr: 0x100004888, symSize: 0x68 }
  - { offsetInCU: 0x15236, offset: 0x15236, size: 0x8, addend: 0x0, symName: __ZN5Eigen8internal15call_assignmentINS_6MatrixIdLin1ELin1ELi0ELin1ELin1EEENS_7ProductINS_9TransposeIS3_EES3_Li0EEENS0_9assign_opIddEEEEvRT_RKT0_RKT1_NS0_9enable_ifIXsr25evaluator_assume_aliasingISC_EE5valueEPvE4typeE, symObjAddr: 0x4124, symBinAddr: 0x1000056C4, symSize: 0x1FC }
  - { offsetInCU: 0x18D12, offset: 0x18D12, size: 0x8, addend: 0x0, symName: __ZN5Eigen8internal17resize_if_allowedINS_6MatrixIdLin1ELin1ELi0ELin1ELin1EEENS_7ProductINS_9TransposeIKS3_EES3_Li1EEEddEEvRT_RKT0_RKNS0_9assign_opIT1_T2_EE, symObjAddr: 0x46CC, symBinAddr: 0x100005C6C, symSize: 0xC0 }
  - { offsetInCU: 0xADA42, offset: 0xADA42, size: 0x8, addend: 0x0, symName: __ZNSt3__124__put_character_sequenceB8ue170006IcNS_11char_traitsIcEEEERNS_13basic_ostreamIT_T0_EES7_PKS4_m, symObjAddr: 0x2A1C, symBinAddr: 0x100003FBC, symSize: 0x164 }
  - { offsetInCU: 0xB01CF, offset: 0xB01CF, size: 0x8, addend: 0x0, symName: __ZNSt3__120__throw_length_errorB8ue170006EPKc, symObjAddr: 0x29A8, symBinAddr: 0x100003F48, symSize: 0x50 }
  - { offsetInCU: 0xB020E, offset: 0xB020E, size: 0x8, addend: 0x0, symName: __ZNSt3__116__pad_and_outputB8ue170006IcNS_11char_traitsIcEEEENS_19ostreambuf_iteratorIT_T0_EES6_PKS4_S8_S8_RNS_8ios_baseES4_, symObjAddr: 0x2B80, symBinAddr: 0x100004120, symSize: 0x194 }
  - { offsetInCU: 0xB1028, offset: 0xB1028, size: 0x8, addend: 0x0, symName: __ZN5Eigen8internal23triangular_solve_vectorIddlLi1ELi5ELb0ELi0EE3runElPKdlPd, symObjAddr: 0x9D70, symBinAddr: 0x10000B310, symSize: 0x3EC }
  - { offsetInCU: 0xB1732, offset: 0xB1732, size: 0x8, addend: 0x0, symName: __ZN5Eigen8internal29general_matrix_vector_productIldNS0_22const_blas_data_mapperIdlLi0EEELi0ELb0EdS3_Lb0ELi0EE3runEllRKS3_S6_Pdld, symObjAddr: 0xA15C, symBinAddr: 0x10000B6FC, symSize: 0x55C }
  - { offsetInCU: 0xB174D, offset: 0xB174D, size: 0x8, addend: 0x0, symName: __ZN5Eigen8internal23triangular_solve_vectorIddlLi1ELi6ELb0ELi1EE3runElPKdlPd, symObjAddr: 0xA7E4, symBinAddr: 0x10000BD84, symSize: 0x1FC }
  - { offsetInCU: 0xB2089, offset: 0xB2089, size: 0x8, addend: 0x0, symName: __ZN5Eigen8internal28transposition_matrix_productINS_6MatrixIdLin1ELi1ELi0ELin1ELi1EEELi1ELb1ENS_10DenseShapeEE3runIS3_NS_14TranspositionsILin1ELin1EiEEEEvRT_RKT0_RKS3_, symObjAddr: 0xA9E0, symBinAddr: 0x10000BF80, symSize: 0x198 }
  - { offsetInCU: 0xB6905, offset: 0xB6905, size: 0x8, addend: 0x0, symName: __ZN5Eigen8internal29general_matrix_vector_productIldNS0_22const_blas_data_mapperIdlLi1EEELi1ELb0EdNS2_IdlLi0EEELb0ELi0EE3runEllRKS3_RKS4_Pdld, symObjAddr: 0x4FE0, symBinAddr: 0x100006580, symSize: 0xAD0 }
  - { offsetInCU: 0xB7A73, offset: 0xB7A73, size: 0x8, addend: 0x0, symName: __ZN5Eigen8internal13gemm_pack_lhsIdlNS0_22const_blas_data_mapperIdlLi1EEELi6ELi2E19__simd128_float64_tLi1ELb0ELb0EEclEPdRKS3_llll, symObjAddr: 0x66C4, symBinAddr: 0x100007C64, symSize: 0x938 }
  - { offsetInCU: 0xB7E6E, offset: 0xB7E6E, size: 0x8, addend: 0x0, symName: __ZN5Eigen8internal11gebp_kernelIddlNS0_16blas_data_mapperIdlLi0ELi0ELi1EEELi6ELi4ELb0ELb0EEclERKS3_PKdS8_llldllll, symObjAddr: 0x75A0, symBinAddr: 0x100008B40, symSize: 0x13AC }
  - { offsetInCU: 0xC117E, offset: 0xC117E, size: 0x8, addend: 0x0, symName: __ZN5Eigen8internal29general_matrix_vector_productIldNS0_22const_blas_data_mapperIdlLi0EEELi0ELb0EdNS2_IdlLi1EEELb0ELi0EE3runEllRKS3_RKS4_Pdld, symObjAddr: 0x8F38, symBinAddr: 0x10000A4D8, symSize: 0x5B0 }
  - { offsetInCU: 0xC2F22, offset: 0xC2F22, size: 0x8, addend: 0x0, symName: __ZN5Eigen8internal29general_matrix_vector_productIldNS0_22const_blas_data_mapperIdlLi0EEELi0ELb0EdS3_Lb0ELi0EE3runEllRKS3_S6_Pdld, symObjAddr: 0xA15C, symBinAddr: 0x10000B6FC, symSize: 0x55C }
  - { offsetInCU: 0xC5150, offset: 0xC5150, size: 0x8, addend: 0x0, symName: __ZN5Eigen8internal19gemv_dense_selectorILi2ELi1ELb1EE3runINS_9TransposeINS_6MatrixIdLin1ELin1ELi0ELin1ELin1EEEEENS_5BlockIKS6_Lin1ELi1ELb1EEENS8_IS6_Lin1ELi1ELb1EEEEEvRKT_RKT0_RT1_RKNSI_6ScalarE, symObjAddr: 0x4E58, symBinAddr: 0x1000063F8, symSize: 0x188 }
  - { offsetInCU: 0xC58A8, offset: 0xC58A8, size: 0x8, addend: 0x0, symName: __ZN5Eigen8internal19gemv_dense_selectorILi2ELi1ELb1EE3runINS_9TransposeIKNS_6MatrixIdLin1ELin1ELi0ELin1ELin1EEEEENS4_IKNS_5BlockIKNS4_IS6_EELi1ELin1ELb1EEEEENS4_INS9_IS6_Li1ELin1ELb0EEEEEEEvRKT_RKT0_RT1_RKNSN_6ScalarE, symObjAddr: 0x5AB0, symBinAddr: 0x100007050, symSize: 0x18C }
  - { offsetInCU: 0xC5EF2, offset: 0xC5EF2, size: 0x8, addend: 0x0, symName: __ZN5Eigen8internal12ldlt_inplaceILi1EE9unblockedINS_6MatrixIdLin1ELin1ELi0ELin1ELin1EEENS_14TranspositionsILin1ELin1EiEENS4_IdLin1ELi1ELi0ELin1ELi1EEEEEbRT_RT0_RT1_RNS0_10SignMatrixE, symObjAddr: 0x3350, symBinAddr: 0x1000048F0, symSize: 0xDD4 }
  - { offsetInCU: 0xC8EAA, offset: 0xC8EAA, size: 0x8, addend: 0x0, symName: __ZN5Eigen8internal19gemv_dense_selectorILi2ELi1ELb1EE3runINS_9TransposeINS_6MatrixIdLin1ELin1ELi0ELin1ELin1EEEEENS5_IdLin1ELi1ELi0ELin1ELi1EEES8_EEvRKT_RKT0_RT1_RKNSF_6ScalarE, symObjAddr: 0x9AC0, symBinAddr: 0x10000B060, symSize: 0x188 }
  - { offsetInCU: 0xCBD48, offset: 0xCBD48, size: 0x8, addend: 0x0, symName: __Z12polynomial_xf, symObjAddr: 0x0, symBinAddr: 0x1000015A0, symSize: 0xBA0 }
  - { offsetInCU: 0xCC4BC, offset: 0xCC4BC, size: 0x8, addend: 0x0, symName: __Z12polynomial_yf, symObjAddr: 0xBA0, symBinAddr: 0x100002140, symSize: 0xBB4 }
  - { offsetInCU: 0xCCEF0, offset: 0xCCEF0, size: 0x8, addend: 0x0, symName: __Z19regressionDebuggingRKNSt3__16vectorIdNS_9allocatorIdEEEES5_S5_iN5Eigen6MatrixIdLin1ELi1ELi0ELin1ELi1EEES8_, symObjAddr: 0x1754, symBinAddr: 0x100002CF4, symSize: 0x3C0 }
  - { offsetInCU: 0xCD715, offset: 0xCD715, size: 0x8, addend: 0x0, symName: __Z19regressionDebuggingRKNSt3__16vectorIdNS_9allocatorIdEEEES5_S5_iN5Eigen6MatrixIdLin1ELi1ELi0ELin1ELi1EEES8_.cold.2, symObjAddr: 0xABA0, symBinAddr: 0x100017D84, symSize: 0x28 }
  - { offsetInCU: 0xCD742, offset: 0xCD742, size: 0x8, addend: 0x0, symName: __Z19regressionDebuggingRKNSt3__16vectorIdNS_9allocatorIdEEEES5_S5_iN5Eigen6MatrixIdLin1ELi1ELi0ELin1ELi1EEES8_.cold.1, symObjAddr: 0xAB78, symBinAddr: 0x100017D5C, symSize: 0x28 }
  - { offsetInCU: 0xCE450, offset: 0xCE450, size: 0x8, addend: 0x0, symName: __Z20polynomialRegressionRKNSt3__16vectorIdNS_9allocatorIdEEEES5_S5_i, symObjAddr: 0x1B14, symBinAddr: 0x1000030B4, symSize: 0xD00 }
  - { offsetInCU: 0xD2175, offset: 0xD2175, size: 0x8, addend: 0x0, symName: __ZN5Eigen4LDLTINS_6MatrixIdLin1ELin1ELi0ELin1ELin1EEELi1EEC2INS_7ProductINS_9TransposeIS2_EES2_Li0EEEEERKNS_9EigenBaseIT_EE, symObjAddr: 0x2D7C, symBinAddr: 0x10000431C, symSize: 0x1CC }
  - { offsetInCU: 0xD2799, offset: 0xD2799, size: 0x8, addend: 0x0, symName: __ZNK5Eigen4LDLTINS_6MatrixIdLin1ELin1ELi0ELin1ELin1EEELi1EE22_solve_impl_transposedILb1ENS_7ProductINS_9TransposeIS2_EENS1_IdLin1ELi1ELi0ELin1ELi1EEELi0EEES8_EEvRKT0_RT1_, symObjAddr: 0x94E8, symBinAddr: 0x10000AA88, symSize: 0x1C8 }
  - { offsetInCU: 0xD33FA, offset: 0xD33FA, size: 0x8, addend: 0x0, symName: __ZN5Eigen8internal28transposition_matrix_productINS_7ProductINS_9TransposeINS_6MatrixIdLin1ELin1ELi0ELin1ELin1EEEEENS4_IdLin1ELi1ELi0ELin1ELi1EEELi0EEELi1ELb0ENS_10DenseShapeEE3runIS7_NS_14TranspositionsILin1ELin1EiEEEEvRT_RKT0_RKS8_, symObjAddr: 0x96B0, symBinAddr: 0x10000AC50, symSize: 0x2A8 }
  - { offsetInCU: 0xD3421, offset: 0xD3421, size: 0x8, addend: 0x0, symName: __ZNSt3__14pairINS_12basic_stringIcNS_11char_traitsIcEENS_9allocatorIcEEEES6_EC2B8ue170006IPKcSA_LPv0EEEONS0_IT_T0_EE, symObjAddr: 0x2858, symBinAddr: 0x100003DF8, symSize: 0x13C }
  - { offsetInCU: 0xD3C2D, offset: 0xD3C2D, size: 0x8, addend: 0x0, symName: __ZN5Eigen4LDLTINS_6MatrixIdLin1ELin1ELi0ELin1ELin1EEELi1EED1Ev, symObjAddr: 0x2814, symBinAddr: 0x100003DB4, symSize: 0x38 }
  - { offsetInCU: 0xD40BF, offset: 0xD40BF, size: 0x8, addend: 0x0, symName: __ZNKSt3__112basic_stringIcNS_11char_traitsIcEENS_9allocatorIcEEE20__throw_length_errorB8ue170006Ev, symObjAddr: 0x2994, symBinAddr: 0x100003F34, symSize: 0x14 }
  - { offsetInCU: 0xD40E8, offset: 0xD40E8, size: 0x8, addend: 0x0, symName: __ZNSt3__120__throw_length_errorB8ue170006EPKc, symObjAddr: 0x29A8, symBinAddr: 0x100003F48, symSize: 0x50 }
  - { offsetInCU: 0xD40F3, offset: 0xD40F3, size: 0x8, addend: 0x0, symName: __ZNSt12length_errorC1B8ue170006EPKc, symObjAddr: 0x29F8, symBinAddr: 0x100003F98, symSize: 0x24 }
  - { offsetInCU: 0xD43FB, offset: 0xD43FB, size: 0x8, addend: 0x0, symName: __ZN5Eigen8internal28conditional_aligned_new_autoIdLb1EEEPT_m.cold.1, symObjAddr: 0xABC8, symBinAddr: 0x100017DAC, symSize: 0x24 }
  - { offsetInCU: 0xD47BF, offset: 0xD47BF, size: 0x8, addend: 0x0, symName: __ZN5Eigen4LDLTINS_6MatrixIdLin1ELin1ELi0ELin1ELin1EEELi1EE7computeINS_7ProductINS_9TransposeIS2_EES2_Li0EEEEERS3_RKNS_9EigenBaseIT_EE, symObjAddr: 0x2F48, symBinAddr: 0x1000044E8, symSize: 0x3A0 }
  - { offsetInCU: 0xD56B6, offset: 0xD56B6, size: 0x8, addend: 0x0, symName: __ZN5Eigen8internal28conditional_aligned_new_autoIiLb1EEEPT_m, symObjAddr: 0x32E8, symBinAddr: 0x100004888, symSize: 0x68 }
  - { offsetInCU: 0xD62E0, offset: 0xD62E0, size: 0x8, addend: 0x0, symName: __ZN5Eigen4LDLTINS_6MatrixIdLin1ELin1ELi0ELin1ELin1EEELi1EE7computeINS_7ProductINS_9TransposeIS2_EES2_Li0EEEEERS3_RKNS_9EigenBaseIT_EE.cold.6, symObjAddr: 0xACA0, symBinAddr: 0x100017E84, symSize: 0x24 }
  - { offsetInCU: 0xD634E, offset: 0xD634E, size: 0x8, addend: 0x0, symName: __ZN5Eigen4LDLTINS_6MatrixIdLin1ELin1ELi0ELin1ELin1EEELi1EE7computeINS_7ProductINS_9TransposeIS2_EES2_Li0EEEEERS3_RKNS_9EigenBaseIT_EE.cold.2, symObjAddr: 0xAC10, symBinAddr: 0x100017DF4, symSize: 0x24 }
  - { offsetInCU: 0xD63A7, offset: 0xD63A7, size: 0x8, addend: 0x0, symName: __ZN5Eigen4LDLTINS_6MatrixIdLin1ELin1ELi0ELin1ELin1EEELi1EE7computeINS_7ProductINS_9TransposeIS2_EES2_Li0EEEEERS3_RKNS_9EigenBaseIT_EE.cold.9, symObjAddr: 0xAD10, symBinAddr: 0x100017EF4, symSize: 0x24 }
  - { offsetInCU: 0xD6415, offset: 0xD6415, size: 0x8, addend: 0x0, symName: __ZN5Eigen4LDLTINS_6MatrixIdLin1ELin1ELi0ELin1ELin1EEELi1EE7computeINS_7ProductINS_9TransposeIS2_EES2_Li0EEEEERS3_RKNS_9EigenBaseIT_EE.cold.5, symObjAddr: 0xAC7C, symBinAddr: 0x100017E60, symSize: 0x24 }
  - { offsetInCU: 0xD646E, offset: 0xD646E, size: 0x8, addend: 0x0, symName: __ZN5Eigen4LDLTINS_6MatrixIdLin1ELin1ELi0ELin1ELin1EEELi1EE7computeINS_7ProductINS_9TransposeIS2_EES2_Li0EEEEERS3_RKNS_9EigenBaseIT_EE.cold.8, symObjAddr: 0xACEC, symBinAddr: 0x100017ED0, symSize: 0x24 }
  - { offsetInCU: 0xD64DD, offset: 0xD64DD, size: 0x8, addend: 0x0, symName: __ZN5Eigen4LDLTINS_6MatrixIdLin1ELin1ELi0ELin1ELin1EEELi1EE7computeINS_7ProductINS_9TransposeIS2_EES2_Li0EEEEERS3_RKNS_9EigenBaseIT_EE.cold.3, symObjAddr: 0xAC34, symBinAddr: 0x100017E18, symSize: 0x24 }
  - { offsetInCU: 0xD65A1, offset: 0xD65A1, size: 0x8, addend: 0x0, symName: __ZN5Eigen4LDLTINS_6MatrixIdLin1ELin1ELi0ELin1ELin1EEELi1EE7computeINS_7ProductINS_9TransposeIS2_EES2_Li0EEEEERS3_RKNS_9EigenBaseIT_EE.cold.4, symObjAddr: 0xAC58, symBinAddr: 0x100017E3C, symSize: 0x24 }
  - { offsetInCU: 0xD6650, offset: 0xD6650, size: 0x8, addend: 0x0, symName: __ZN5Eigen4LDLTINS_6MatrixIdLin1ELin1ELi0ELin1ELin1EEELi1EE7computeINS_7ProductINS_9TransposeIS2_EES2_Li0EEEEERS3_RKNS_9EigenBaseIT_EE.cold.10, symObjAddr: 0xAD34, symBinAddr: 0x100017F18, symSize: 0x28 }
  - { offsetInCU: 0xD6668, offset: 0xD6668, size: 0x8, addend: 0x0, symName: __ZN5Eigen4LDLTINS_6MatrixIdLin1ELin1ELi0ELin1ELin1EEELi1EE7computeINS_7ProductINS_9TransposeIS2_EES2_Li0EEEEERS3_RKNS_9EigenBaseIT_EE.cold.7, symObjAddr: 0xACC4, symBinAddr: 0x100017EA8, symSize: 0x28 }
  - { offsetInCU: 0xD66AB, offset: 0xD66AB, size: 0x8, addend: 0x0, symName: __ZN5Eigen4LDLTINS_6MatrixIdLin1ELin1ELi0ELin1ELin1EEELi1EE7computeINS_7ProductINS_9TransposeIS2_EES2_Li0EEEEERS3_RKNS_9EigenBaseIT_EE.cold.1, symObjAddr: 0xABEC, symBinAddr: 0x100017DD0, symSize: 0x24 }
  - { offsetInCU: 0xD675A, offset: 0xD675A, size: 0x8, addend: 0x0, symName: __ZN5Eigen8internal28conditional_aligned_new_autoIiLb1EEEPT_m.cold.1, symObjAddr: 0xAD5C, symBinAddr: 0x100017F40, symSize: 0x24 }
  - { offsetInCU: 0xD83F3, offset: 0xD83F3, size: 0x8, addend: 0x0, symName: __ZN5Eigen8internal20generic_product_implINS_5BlockINS_6MatrixIdLin1ELin1ELi0ELin1ELin1EEELin1ELin1ELb0EEENS2_INS3_IdLin1ELi1ELi0ELin1ELi1EEELin1ELi1ELb0EEENS_10DenseShapeES8_Li7EE13scaleAndAddToINS2_IS4_Lin1ELi1ELb0EEEEEvRT_RKS5_RKS7_RKd, symObjAddr: 0x8DA0, symBinAddr: 0x10000A340, symSize: 0x198 }
  - { offsetInCU: 0xD8B5E, offset: 0xD8B5E, size: 0x8, addend: 0x0, symName: __ZN5Eigen8internal29general_matrix_vector_productIldNS0_22const_blas_data_mapperIdlLi0EEELi0ELb0EdNS2_IdlLi1EEELb0ELi0EE3runEllRKS3_RKS4_Pdld, symObjAddr: 0x8F38, symBinAddr: 0x10000A4D8, symSize: 0x5B0 }
  - { offsetInCU: 0xD8B72, offset: 0xD8B72, size: 0x8, addend: 0x0, symName: __ZN5Eigen8internal12ldlt_inplaceILi1EE9unblockedINS_6MatrixIdLin1ELin1ELi0ELin1ELin1EEENS_14TranspositionsILin1ELin1EiEENS4_IdLin1ELi1ELi0ELin1ELi1EEEEEbRT_RT0_RT1_RNS0_10SignMatrixE.cold.14, symObjAddr: 0xAF58, symBinAddr: 0x10001813C, symSize: 0x24 }
  - { offsetInCU: 0xD8BB5, offset: 0xD8BB5, size: 0x8, addend: 0x0, symName: __ZN5Eigen8internal12ldlt_inplaceILi1EE9unblockedINS_6MatrixIdLin1ELin1ELi0ELin1ELin1EEENS_14TranspositionsILin1ELin1EiEENS4_IdLin1ELi1ELi0ELin1ELi1EEEEEbRT_RT0_RT1_RNS0_10SignMatrixE.cold.13, symObjAddr: 0xAF34, symBinAddr: 0x100018118, symSize: 0x24 }
  - { offsetInCU: 0xD8BF8, offset: 0xD8BF8, size: 0x8, addend: 0x0, symName: __ZN5Eigen8internal12ldlt_inplaceILi1EE9unblockedINS_6MatrixIdLin1ELin1ELi0ELin1ELin1EEENS_14TranspositionsILin1ELin1EiEENS4_IdLin1ELi1ELi0ELin1ELi1EEEEEbRT_RT0_RT1_RNS0_10SignMatrixE.cold.12, symObjAddr: 0xAF10, symBinAddr: 0x1000180F4, symSize: 0x24 }
  - { offsetInCU: 0xD8C66, offset: 0xD8C66, size: 0x8, addend: 0x0, symName: __ZN5Eigen8internal12ldlt_inplaceILi1EE9unblockedINS_6MatrixIdLin1ELin1ELi0ELin1ELin1EEENS_14TranspositionsILin1ELin1EiEENS4_IdLin1ELi1ELi0ELin1ELi1EEEEEbRT_RT0_RT1_RNS0_10SignMatrixE.cold.11, symObjAddr: 0xAEEC, symBinAddr: 0x1000180D0, symSize: 0x24 }
  - { offsetInCU: 0xD8CD4, offset: 0xD8CD4, size: 0x8, addend: 0x0, symName: __ZN5Eigen8internal12ldlt_inplaceILi1EE9unblockedINS_6MatrixIdLin1ELin1ELi0ELin1ELin1EEENS_14TranspositionsILin1ELin1EiEENS4_IdLin1ELi1ELi0ELin1ELi1EEEEEbRT_RT0_RT1_RNS0_10SignMatrixE.cold.1, symObjAddr: 0xAD80, symBinAddr: 0x100017F64, symSize: 0x24 }
  - { offsetInCU: 0xD8D2C, offset: 0xD8D2C, size: 0x8, addend: 0x0, symName: __ZN5Eigen8internal12ldlt_inplaceILi1EE9unblockedINS_6MatrixIdLin1ELin1ELi0ELin1ELin1EEENS_14TranspositionsILin1ELin1EiEENS4_IdLin1ELi1ELi0ELin1ELi1EEEEEbRT_RT0_RT1_RNS0_10SignMatrixE.cold.23, symObjAddr: 0xB09C, symBinAddr: 0x100018280, symSize: 0x24 }
  - { offsetInCU: 0xD8D9A, offset: 0xD8D9A, size: 0x8, addend: 0x0, symName: __ZN5Eigen8internal12ldlt_inplaceILi1EE9unblockedINS_6MatrixIdLin1ELin1ELi0ELin1ELin1EEENS_14TranspositionsILin1ELin1EiEENS4_IdLin1ELi1ELi0ELin1ELi1EEEEEbRT_RT0_RT1_RNS0_10SignMatrixE.cold.15, symObjAddr: 0xAF7C, symBinAddr: 0x100018160, symSize: 0x24 }
  - { offsetInCU: 0xD8E08, offset: 0xD8E08, size: 0x8, addend: 0x0, symName: __ZN5Eigen8internal12ldlt_inplaceILi1EE9unblockedINS_6MatrixIdLin1ELin1ELi0ELin1ELin1EEENS_14TranspositionsILin1ELin1EiEENS4_IdLin1ELi1ELi0ELin1ELi1EEEEEbRT_RT0_RT1_RNS0_10SignMatrixE.cold.10, symObjAddr: 0xAEC8, symBinAddr: 0x1000180AC, symSize: 0x24 }
  - { offsetInCU: 0xD8E60, offset: 0xD8E60, size: 0x8, addend: 0x0, symName: __ZN5Eigen8internal12ldlt_inplaceILi1EE9unblockedINS_6MatrixIdLin1ELin1ELi0ELin1ELin1EEENS_14TranspositionsILin1ELin1EiEENS4_IdLin1ELi1ELi0ELin1ELi1EEEEEbRT_RT0_RT1_RNS0_10SignMatrixE.cold.2, symObjAddr: 0xADA4, symBinAddr: 0x100017F88, symSize: 0x28 }
  - { offsetInCU: 0xD8EA4, offset: 0xD8EA4, size: 0x8, addend: 0x0, symName: __ZN5Eigen8internal12ldlt_inplaceILi1EE9unblockedINS_6MatrixIdLin1ELin1ELi0ELin1ELin1EEENS_14TranspositionsILin1ELin1EiEENS4_IdLin1ELi1ELi0ELin1ELi1EEEEEbRT_RT0_RT1_RNS0_10SignMatrixE.cold.22, symObjAddr: 0xB078, symBinAddr: 0x10001825C, symSize: 0x24 }
  - { offsetInCU: 0xD8EFD, offset: 0xD8EFD, size: 0x8, addend: 0x0, symName: __ZN5Eigen8internal12ldlt_inplaceILi1EE9unblockedINS_6MatrixIdLin1ELin1ELi0ELin1ELin1EEENS_14TranspositionsILin1ELin1EiEENS4_IdLin1ELi1ELi0ELin1ELi1EEEEEbRT_RT0_RT1_RNS0_10SignMatrixE.cold.16, symObjAddr: 0xAFA0, symBinAddr: 0x100018184, symSize: 0x24 }
  - { offsetInCU: 0xD8F56, offset: 0xD8F56, size: 0x8, addend: 0x0, symName: __ZN5Eigen8internal12ldlt_inplaceILi1EE9unblockedINS_6MatrixIdLin1ELin1ELi0ELin1ELin1EEENS_14TranspositionsILin1ELin1EiEENS4_IdLin1ELi1ELi0ELin1ELi1EEEEEbRT_RT0_RT1_RNS0_10SignMatrixE.cold.21, symObjAddr: 0xB054, symBinAddr: 0x100018238, symSize: 0x24 }
  - { offsetInCU: 0xD8FAF, offset: 0xD8FAF, size: 0x8, addend: 0x0, symName: __ZN5Eigen8internal12ldlt_inplaceILi1EE9unblockedINS_6MatrixIdLin1ELin1ELi0ELin1ELin1EEENS_14TranspositionsILin1ELin1EiEENS4_IdLin1ELi1ELi0ELin1ELi1EEEEEbRT_RT0_RT1_RNS0_10SignMatrixE.cold.20, symObjAddr: 0xB030, symBinAddr: 0x100018214, symSize: 0x24 }
  - { offsetInCU: 0xD901D, offset: 0xD901D, size: 0x8, addend: 0x0, symName: __ZN5Eigen8internal12ldlt_inplaceILi1EE9unblockedINS_6MatrixIdLin1ELin1ELi0ELin1ELin1EEENS_14TranspositionsILin1ELin1EiEENS4_IdLin1ELi1ELi0ELin1ELi1EEEEEbRT_RT0_RT1_RNS0_10SignMatrixE.cold.19, symObjAddr: 0xB00C, symBinAddr: 0x1000181F0, symSize: 0x24 }
  - { offsetInCU: 0xD9076, offset: 0xD9076, size: 0x8, addend: 0x0, symName: __ZN5Eigen8internal12ldlt_inplaceILi1EE9unblockedINS_6MatrixIdLin1ELin1ELi0ELin1ELin1EEENS_14TranspositionsILin1ELin1EiEENS4_IdLin1ELi1ELi0ELin1ELi1EEEEEbRT_RT0_RT1_RNS0_10SignMatrixE.cold.9, symObjAddr: 0xAEA4, symBinAddr: 0x100018088, symSize: 0x24 }
  - { offsetInCU: 0xD90CF, offset: 0xD90CF, size: 0x8, addend: 0x0, symName: __ZN5Eigen8internal12ldlt_inplaceILi1EE9unblockedINS_6MatrixIdLin1ELin1ELi0ELin1ELin1EEENS_14TranspositionsILin1ELin1EiEENS4_IdLin1ELi1ELi0ELin1ELi1EEEEEbRT_RT0_RT1_RNS0_10SignMatrixE.cold.8, symObjAddr: 0xAE80, symBinAddr: 0x100018064, symSize: 0x24 }
  - { offsetInCU: 0xD913D, offset: 0xD913D, size: 0x8, addend: 0x0, symName: __ZN5Eigen8internal12ldlt_inplaceILi1EE9unblockedINS_6MatrixIdLin1ELin1ELi0ELin1ELin1EEENS_14TranspositionsILin1ELin1EiEENS4_IdLin1ELi1ELi0ELin1ELi1EEEEEbRT_RT0_RT1_RNS0_10SignMatrixE.cold.3, symObjAddr: 0xADCC, symBinAddr: 0x100017FB0, symSize: 0x24 }
  - { offsetInCU: 0xD91D6, offset: 0xD91D6, size: 0x8, addend: 0x0, symName: __ZN5Eigen8internal12ldlt_inplaceILi1EE9unblockedINS_6MatrixIdLin1ELin1ELi0ELin1ELin1EEENS_14TranspositionsILin1ELin1EiEENS4_IdLin1ELi1ELi0ELin1ELi1EEEEEbRT_RT0_RT1_RNS0_10SignMatrixE.cold.4, symObjAddr: 0xADF0, symBinAddr: 0x100017FD4, symSize: 0x24 }
  - { offsetInCU: 0xD9258, offset: 0xD9258, size: 0x8, addend: 0x0, symName: __ZN5Eigen8internal12ldlt_inplaceILi1EE9unblockedINS_6MatrixIdLin1ELin1ELi0ELin1ELin1EEENS_14TranspositionsILin1ELin1EiEENS4_IdLin1ELi1ELi0ELin1ELi1EEEEEbRT_RT0_RT1_RNS0_10SignMatrixE.cold.5, symObjAddr: 0xAE14, symBinAddr: 0x100017FF8, symSize: 0x24 }
  - { offsetInCU: 0xD92DA, offset: 0xD92DA, size: 0x8, addend: 0x0, symName: __ZN5Eigen8internal12ldlt_inplaceILi1EE9unblockedINS_6MatrixIdLin1ELin1ELi0ELin1ELin1EEENS_14TranspositionsILin1ELin1EiEENS4_IdLin1ELi1ELi0ELin1ELi1EEEEEbRT_RT0_RT1_RNS0_10SignMatrixE.cold.17, symObjAddr: 0xAFC4, symBinAddr: 0x1000181A8, symSize: 0x24 }
  - { offsetInCU: 0xD9389, offset: 0xD9389, size: 0x8, addend: 0x0, symName: __ZN5Eigen8internal12ldlt_inplaceILi1EE9unblockedINS_6MatrixIdLin1ELin1ELi0ELin1ELin1EEENS_14TranspositionsILin1ELin1EiEENS4_IdLin1ELi1ELi0ELin1ELi1EEEEEbRT_RT0_RT1_RNS0_10SignMatrixE.cold.18, symObjAddr: 0xAFE8, symBinAddr: 0x1000181CC, symSize: 0x24 }
  - { offsetInCU: 0xD944D, offset: 0xD944D, size: 0x8, addend: 0x0, symName: __ZN5Eigen8internal12ldlt_inplaceILi1EE9unblockedINS_6MatrixIdLin1ELin1ELi0ELin1ELin1EEENS_14TranspositionsILin1ELin1EiEENS4_IdLin1ELi1ELi0ELin1ELi1EEEEEbRT_RT0_RT1_RNS0_10SignMatrixE.cold.24, symObjAddr: 0xB0C0, symBinAddr: 0x1000182A4, symSize: 0x28 }
  - { offsetInCU: 0xD9465, offset: 0xD9465, size: 0x8, addend: 0x0, symName: __ZN5Eigen8internal12ldlt_inplaceILi1EE9unblockedINS_6MatrixIdLin1ELin1ELi0ELin1ELin1EEENS_14TranspositionsILin1ELin1EiEENS4_IdLin1ELi1ELi0ELin1ELi1EEEEEbRT_RT0_RT1_RNS0_10SignMatrixE.cold.7, symObjAddr: 0xAE5C, symBinAddr: 0x100018040, symSize: 0x24 }
  - { offsetInCU: 0xD9529, offset: 0xD9529, size: 0x8, addend: 0x0, symName: __ZN5Eigen8internal12ldlt_inplaceILi1EE9unblockedINS_6MatrixIdLin1ELin1ELi0ELin1ELin1EEENS_14TranspositionsILin1ELin1EiEENS4_IdLin1ELi1ELi0ELin1ELi1EEEEEbRT_RT0_RT1_RNS0_10SignMatrixE.cold.6, symObjAddr: 0xAE38, symBinAddr: 0x10001801C, symSize: 0x24 }
  - { offsetInCU: 0xD9908, offset: 0xD9908, size: 0x8, addend: 0x0, symName: __ZN5Eigen8internal10AssignmentINS_6MatrixIdLin1ELin1ELi0ELin1ELin1EEENS_7ProductINS_9TransposeIS3_EES3_Li0EEENS0_9assign_opIddEENS0_11Dense2DenseEvE3runERS3_RKS7_RKS9_, symObjAddr: 0x4320, symBinAddr: 0x1000058C0, symSize: 0xD8 }
  - { offsetInCU: 0xD9BB4, offset: 0xD9BB4, size: 0x8, addend: 0x0, symName: __ZN5Eigen8internal20generic_product_implINS_9TransposeINS_6MatrixIdLin1ELin1ELi0ELin1ELin1EEEEES4_NS_10DenseShapeES6_Li8EE6evalToIS4_EEvRT_RKS5_RKS4_, symObjAddr: 0x43F8, symBinAddr: 0x100005998, symSize: 0x108 }
  - { offsetInCU: 0xDA482, offset: 0xDA482, size: 0x8, addend: 0x0, symName: __ZN5Eigen8internal20generic_product_implINS_9TransposeINS_6MatrixIdLin1ELin1ELi0ELin1ELin1EEEEES4_NS_10DenseShapeES6_Li8EE13scaleAndAddToIS4_EEvRT_RKS5_RKS4_RKd, symObjAddr: 0x4500, symBinAddr: 0x100005AA0, symSize: 0x1CC }
  - { offsetInCU: 0xDA496, offset: 0xDA496, size: 0x8, addend: 0x0, symName: __ZN5Eigen8internal10AssignmentINS_6MatrixIdLin1ELin1ELi0ELin1ELin1EEENS_7ProductINS_9TransposeIS3_EES3_Li0EEENS0_9assign_opIddEENS0_11Dense2DenseEvE3runERS3_RKS7_RKS9_.cold.1, symObjAddr: 0xB0E8, symBinAddr: 0x1000182CC, symSize: 0x24 }
  - { offsetInCU: 0xDAD0E, offset: 0xDAD0E, size: 0x8, addend: 0x0, symName: __ZN5Eigen8internal20generic_product_implINS_9TransposeINS_6MatrixIdLin1ELin1ELi0ELin1ELin1EEEEES4_NS_10DenseShapeES6_Li8EE13scaleAndAddToIS4_EEvRT_RKS5_RKS4_RKd, symObjAddr: 0x4500, symBinAddr: 0x100005AA0, symSize: 0x1CC }
  - { offsetInCU: 0xDBB2E, offset: 0xDBB2E, size: 0x8, addend: 0x0, symName: __ZN5Eigen8internal21dense_assignment_loopINS0_41restricted_packet_dense_assignment_kernelINS0_9evaluatorINS_6MatrixIdLin1ELin1ELi0ELin1ELin1EEEEENS3_INS_7ProductINS_9TransposeIKS5_EES5_Li1EEEEENS0_9assign_opIddEEEELi0ELi0EE3runERSF_, symObjAddr: 0x478C, symBinAddr: 0x100005D2C, symSize: 0x3BC }
  - { offsetInCU: 0xDC424, offset: 0xDC424, size: 0x8, addend: 0x0, symName: __ZN5Eigen8internal20generic_product_implINS_9TransposeINS_6MatrixIdLin1ELin1ELi0ELin1ELin1EEEEEKNS_5BlockIKS4_Lin1ELi1ELb1EEENS_10DenseShapeESA_Li7EE13scaleAndAddToINS6_IS4_Lin1ELi1ELb1EEEEEvRT_RKS5_RS9_RKd, symObjAddr: 0x4B48, symBinAddr: 0x1000060E8, symSize: 0x180 }
  - { offsetInCU: 0xDC42F, offset: 0xDC42F, size: 0x8, addend: 0x0, symName: __ZN5Eigen8internal20generic_product_implINS_9TransposeINS_6MatrixIdLin1ELin1ELi0ELin1ELin1EEEEES4_NS_10DenseShapeES6_Li8EE6evalToIS4_EEvRT_RKS5_RKS4_.cold.2, symObjAddr: 0xB130, symBinAddr: 0x100018314, symSize: 0x24 }
  - { offsetInCU: 0xDC4C8, offset: 0xDC4C8, size: 0x8, addend: 0x0, symName: __ZN5Eigen8internal20generic_product_implINS_9TransposeINS_6MatrixIdLin1ELin1ELi0ELin1ELin1EEEEES4_NS_10DenseShapeES6_Li8EE6evalToIS4_EEvRT_RKS5_RKS4_.cold.1, symObjAddr: 0xB10C, symBinAddr: 0x1000182F0, symSize: 0x24 }
  - { offsetInCU: 0xDCB97, offset: 0xDCB97, size: 0x8, addend: 0x0, symName: __ZN5Eigen8internal20generic_product_implINS_9TransposeINS_6MatrixIdLin1ELin1ELi0ELin1ELin1EEEEEKNS_5BlockIKS4_Lin1ELi1ELb1EEENS_10DenseShapeESA_Li7EE13scaleAndAddToINS6_IS4_Lin1ELi1ELb1EEEEEvRT_RKS5_RS9_RKd, symObjAddr: 0x4B48, symBinAddr: 0x1000060E8, symSize: 0x180 }
  - { offsetInCU: 0xDD6BF, offset: 0xDD6BF, size: 0x8, addend: 0x0, symName: __ZN5Eigen8internal20generic_product_implIKNS_5BlockIKNS_9TransposeINS_6MatrixIdLin1ELin1ELi0ELin1ELin1EEEEELi1ELin1ELb1EEES5_NS_10DenseShapeESA_Li7EE13scaleAndAddToINS2_IS5_Li1ELin1ELb0EEEEEvRT_RS9_RKS5_RKd, symObjAddr: 0x4CC8, symBinAddr: 0x100006268, symSize: 0x190 }
  - { offsetInCU: 0xDD890, offset: 0xDD890, size: 0x8, addend: 0x0, symName: __ZN5Eigen8internal20generic_product_implIKNS_5BlockIKNS_9TransposeINS_6MatrixIdLin1ELin1ELi0ELin1ELin1EEEEELi1ELin1ELb1EEES5_NS_10DenseShapeESA_Li7EE13scaleAndAddToINS2_IS5_Li1ELin1ELb0EEEEEvRT_RS9_RKS5_RKd, symObjAddr: 0x4CC8, symBinAddr: 0x100006268, symSize: 0x190 }
  - { offsetInCU: 0xDE4C5, offset: 0xDE4C5, size: 0x8, addend: 0x0, symName: __ZN5Eigen8internal19gemv_dense_selectorILi2ELi1ELb1EE3runINS_9TransposeINS_6MatrixIdLin1ELin1ELi0ELin1ELin1EEEEENS_5BlockIKS6_Lin1ELi1ELb1EEENS8_IS6_Lin1ELi1ELb1EEEEEvRKT_RKT0_RT1_RKNSI_6ScalarE, symObjAddr: 0x4E58, symBinAddr: 0x1000063F8, symSize: 0x188 }
  - { offsetInCU: 0xDE4D9, offset: 0xDE4D9, size: 0x8, addend: 0x0, symName: __ZN5Eigen8internal29general_matrix_matrix_productIldLi1ELb0EdLi0ELb0ELi0ELi1EE3runElllPKdlS4_lPdlldRNS0_15level3_blockingIddEEPNS0_16GemmParallelInfoIlEE, symObjAddr: 0x5FC8, symBinAddr: 0x100007568, symSize: 0x6FC }
  - { offsetInCU: 0xDEB62, offset: 0xDEB62, size: 0x8, addend: 0x0, symName: __ZN5Eigen8internal20generic_product_implINS_9TransposeINS_6MatrixIdLin1ELin1ELi0ELin1ELin1EEEEES4_NS_10DenseShapeES6_Li8EE13scaleAndAddToIS4_EEvRT_RKS5_RKS4_RKd.cold.5, symObjAddr: 0xB1E4, symBinAddr: 0x1000183C8, symSize: 0x28 }
  - { offsetInCU: 0xDEB7A, offset: 0xDEB7A, size: 0x8, addend: 0x0, symName: __ZN5Eigen8internal20generic_product_implINS_9TransposeINS_6MatrixIdLin1ELin1ELi0ELin1ELin1EEEEES4_NS_10DenseShapeES6_Li8EE13scaleAndAddToIS4_EEvRT_RKS5_RKS4_RKd.cold.1, symObjAddr: 0xB154, symBinAddr: 0x100018338, symSize: 0x24 }
  - { offsetInCU: 0xDEC29, offset: 0xDEC29, size: 0x8, addend: 0x0, symName: __ZN5Eigen8internal20generic_product_implINS_9TransposeINS_6MatrixIdLin1ELin1ELi0ELin1ELin1EEEEES4_NS_10DenseShapeES6_Li8EE13scaleAndAddToIS4_EEvRT_RKS5_RKS4_RKd.cold.2, symObjAddr: 0xB178, symBinAddr: 0x10001835C, symSize: 0x24 }
  - { offsetInCU: 0xDECC2, offset: 0xDECC2, size: 0x8, addend: 0x0, symName: __ZN5Eigen8internal20generic_product_implINS_9TransposeINS_6MatrixIdLin1ELin1ELi0ELin1ELin1EEEEES4_NS_10DenseShapeES6_Li8EE13scaleAndAddToIS4_EEvRT_RKS5_RKS4_RKd.cold.3, symObjAddr: 0xB19C, symBinAddr: 0x100018380, symSize: 0x24 }
  - { offsetInCU: 0xDED71, offset: 0xDED71, size: 0x8, addend: 0x0, symName: __ZN5Eigen8internal20generic_product_implINS_9TransposeINS_6MatrixIdLin1ELin1ELi0ELin1ELin1EEEEES4_NS_10DenseShapeES6_Li8EE13scaleAndAddToIS4_EEvRT_RKS5_RKS4_RKd.cold.4, symObjAddr: 0xB1C0, symBinAddr: 0x1000183A4, symSize: 0x24 }
  - { offsetInCU: 0xDEE51, offset: 0xDEE51, size: 0x8, addend: 0x0, symName: __ZN5Eigen8internal17resize_if_allowedINS_6MatrixIdLin1ELin1ELi0ELin1ELin1EEENS_7ProductINS_9TransposeIKS3_EES3_Li1EEEddEEvRT_RKT0_RKNS0_9assign_opIT1_T2_EE.cold.1, symObjAddr: 0xB20C, symBinAddr: 0x1000183F0, symSize: 0x24 }
  - { offsetInCU: 0xDF4DF, offset: 0xDF4DF, size: 0x8, addend: 0x0, symName: __ZN5Eigen8internal21dense_assignment_loopINS0_41restricted_packet_dense_assignment_kernelINS0_9evaluatorINS_6MatrixIdLin1ELin1ELi0ELin1ELin1EEEEENS3_INS_7ProductINS_9TransposeIKS5_EES5_Li1EEEEENS0_9assign_opIddEEEELi0ELi0EE3runERSF_.cold.6, symObjAddr: 0xB2E8, symBinAddr: 0x1000184CC, symSize: 0x24 }
  - { offsetInCU: 0xDF565, offset: 0xDF565, size: 0x8, addend: 0x0, symName: __ZN5Eigen8internal21dense_assignment_loopINS0_41restricted_packet_dense_assignment_kernelINS0_9evaluatorINS_6MatrixIdLin1ELin1ELi0ELin1ELin1EEEEENS3_INS_7ProductINS_9TransposeIKS5_EES5_Li1EEEEENS0_9assign_opIddEEEELi0ELi0EE3runERSF_.cold.5, symObjAddr: 0xB2C4, symBinAddr: 0x1000184A8, symSize: 0x24 }
  - { offsetInCU: 0xDF600, offset: 0xDF600, size: 0x8, addend: 0x0, symName: __ZN5Eigen8internal21dense_assignment_loopINS0_41restricted_packet_dense_assignment_kernelINS0_9evaluatorINS_6MatrixIdLin1ELin1ELi0ELin1ELin1EEEEENS3_INS_7ProductINS_9TransposeIKS5_EES5_Li1EEEEENS0_9assign_opIddEEEELi0ELi0EE3runERSF_.cold.2, symObjAddr: 0xB254, symBinAddr: 0x100018438, symSize: 0x24 }
  - { offsetInCU: 0xDF69B, offset: 0xDF69B, size: 0x8, addend: 0x0, symName: __ZN5Eigen8internal21dense_assignment_loopINS0_41restricted_packet_dense_assignment_kernelINS0_9evaluatorINS_6MatrixIdLin1ELin1ELi0ELin1ELin1EEEEENS3_INS_7ProductINS_9TransposeIKS5_EES5_Li1EEEEENS0_9assign_opIddEEEELi0ELi0EE3runERSF_.cold.4, symObjAddr: 0xB29C, symBinAddr: 0x100018480, symSize: 0x28 }
  - { offsetInCU: 0xDF735, offset: 0xDF735, size: 0x8, addend: 0x0, symName: __ZN5Eigen8internal21dense_assignment_loopINS0_41restricted_packet_dense_assignment_kernelINS0_9evaluatorINS_6MatrixIdLin1ELin1ELi0ELin1ELin1EEEEENS3_INS_7ProductINS_9TransposeIKS5_EES5_Li1EEEEENS0_9assign_opIddEEEELi0ELi0EE3runERSF_.cold.3, symObjAddr: 0xB278, symBinAddr: 0x10001845C, symSize: 0x24 }
  - { offsetInCU: 0xDF810, offset: 0xDF810, size: 0x8, addend: 0x0, symName: __ZN5Eigen8internal21dense_assignment_loopINS0_41restricted_packet_dense_assignment_kernelINS0_9evaluatorINS_6MatrixIdLin1ELin1ELi0ELin1ELin1EEEEENS3_INS_7ProductINS_9TransposeIKS5_EES5_Li1EEEEENS0_9assign_opIddEEEELi0ELi0EE3runERSF_.cold.1, symObjAddr: 0xB230, symBinAddr: 0x100018414, symSize: 0x24 }
  - { offsetInCU: 0xDFF39, offset: 0xDFF39, size: 0x8, addend: 0x0, symName: __ZN5Eigen8internal20generic_product_implINS_9TransposeINS_6MatrixIdLin1ELin1ELi0ELin1ELin1EEEEEKNS_5BlockIKS4_Lin1ELi1ELb1EEENS_10DenseShapeESA_Li7EE13scaleAndAddToINS6_IS4_Lin1ELi1ELb1EEEEEvRT_RKS5_RS9_RKd.cold.4, symObjAddr: 0xB378, symBinAddr: 0x10001855C, symSize: 0x24 }
  - { offsetInCU: 0xDFF67, offset: 0xDFF67, size: 0x8, addend: 0x0, symName: __ZN5Eigen8internal20generic_product_implINS_9TransposeINS_6MatrixIdLin1ELin1ELi0ELin1ELin1EEEEEKNS_5BlockIKS4_Lin1ELi1ELb1EEENS_10DenseShapeESA_Li7EE13scaleAndAddToINS6_IS4_Lin1ELi1ELb1EEEEEvRT_RKS5_RS9_RKd.cold.3, symObjAddr: 0xB354, symBinAddr: 0x100018538, symSize: 0x24 }
  - { offsetInCU: 0xDFFD5, offset: 0xDFFD5, size: 0x8, addend: 0x0, symName: __ZN5Eigen8internal20generic_product_implINS_9TransposeINS_6MatrixIdLin1ELin1ELi0ELin1ELin1EEEEEKNS_5BlockIKS4_Lin1ELi1ELb1EEENS_10DenseShapeESA_Li7EE13scaleAndAddToINS6_IS4_Lin1ELi1ELb1EEEEEvRT_RKS5_RS9_RKd.cold.1, symObjAddr: 0xB30C, symBinAddr: 0x1000184F0, symSize: 0x24 }
  - { offsetInCU: 0xE006E, offset: 0xE006E, size: 0x8, addend: 0x0, symName: __ZN5Eigen8internal20generic_product_implINS_9TransposeINS_6MatrixIdLin1ELin1ELi0ELin1ELin1EEEEEKNS_5BlockIKS4_Lin1ELi1ELb1EEENS_10DenseShapeESA_Li7EE13scaleAndAddToINS6_IS4_Lin1ELi1ELb1EEEEEvRT_RKS5_RS9_RKd.cold.2, symObjAddr: 0xB330, symBinAddr: 0x100018514, symSize: 0x24 }
  - { offsetInCU: 0xE0725, offset: 0xE0725, size: 0x8, addend: 0x0, symName: __ZN5Eigen8internal20generic_product_implIKNS_5BlockIKNS_9TransposeINS_6MatrixIdLin1ELin1ELi0ELin1ELin1EEEEELi1ELin1ELb1EEES5_NS_10DenseShapeESA_Li7EE13scaleAndAddToINS2_IS5_Li1ELin1ELb0EEEEEvRT_RS9_RKS5_RKd.cold.4, symObjAddr: 0xB408, symBinAddr: 0x1000185EC, symSize: 0x24 }
  - { offsetInCU: 0xE0753, offset: 0xE0753, size: 0x8, addend: 0x0, symName: __ZN5Eigen8internal20generic_product_implIKNS_5BlockIKNS_9TransposeINS_6MatrixIdLin1ELin1ELi0ELin1ELin1EEEEELi1ELin1ELb1EEES5_NS_10DenseShapeESA_Li7EE13scaleAndAddToINS2_IS5_Li1ELin1ELb0EEEEEvRT_RS9_RKS5_RKd.cold.3, symObjAddr: 0xB3E4, symBinAddr: 0x1000185C8, symSize: 0x24 }
  - { offsetInCU: 0xE07C1, offset: 0xE07C1, size: 0x8, addend: 0x0, symName: __ZN5Eigen8internal20generic_product_implIKNS_5BlockIKNS_9TransposeINS_6MatrixIdLin1ELin1ELi0ELin1ELin1EEEEELi1ELin1ELb1EEES5_NS_10DenseShapeESA_Li7EE13scaleAndAddToINS2_IS5_Li1ELin1ELb0EEEEEvRT_RS9_RKS5_RKd.cold.1, symObjAddr: 0xB39C, symBinAddr: 0x100018580, symSize: 0x24 }
  - { offsetInCU: 0xE085A, offset: 0xE085A, size: 0x8, addend: 0x0, symName: __ZN5Eigen8internal20generic_product_implIKNS_5BlockIKNS_9TransposeINS_6MatrixIdLin1ELin1ELi0ELin1ELin1EEEEELi1ELin1ELb1EEES5_NS_10DenseShapeESA_Li7EE13scaleAndAddToINS2_IS5_Li1ELin1ELb0EEEEEvRT_RS9_RKS5_RKd.cold.2, symObjAddr: 0xB3C0, symBinAddr: 0x1000185A4, symSize: 0x24 }
  - { offsetInCU: 0xE0C80, offset: 0xE0C80, size: 0x8, addend: 0x0, symName: __ZN5Eigen8internal19gemv_dense_selectorILi2ELi1ELb1EE3runINS_9TransposeINS_6MatrixIdLin1ELin1ELi0ELin1ELin1EEEEENS_5BlockIKS6_Lin1ELi1ELb1EEENS8_IS6_Lin1ELi1ELb1EEEEEvRKT_RKT0_RT1_RKNSI_6ScalarE.cold.1, symObjAddr: 0xB42C, symBinAddr: 0x100018610, symSize: 0x24 }
  - { offsetInCU: 0xE1020, offset: 0xE1020, size: 0x8, addend: 0x0, symName: __ZN5Eigen8internal19gemv_dense_selectorILi2ELi1ELb1EE3runINS_9TransposeIKNS_6MatrixIdLin1ELin1ELi0ELin1ELin1EEEEENS4_IKNS_5BlockIKNS4_IS6_EELi1ELin1ELb1EEEEENS4_INS9_IS6_Li1ELin1ELb0EEEEEEEvRKT_RKT0_RT1_RKNSN_6ScalarE.cold.1, symObjAddr: 0xB450, symBinAddr: 0x100018634, symSize: 0x24 }
  - { offsetInCU: 0xE120F, offset: 0xE120F, size: 0x8, addend: 0x0, symName: __ZN5Eigen8internal13gemm_pack_rhsIdlNS0_22const_blas_data_mapperIdlLi0EEELi4ELi0ELb0ELb0EEclEPdRKS3_llll, symObjAddr: 0x6FFC, symBinAddr: 0x10000859C, symSize: 0x5A4 }
  - { offsetInCU: 0xE140E, offset: 0xE140E, size: 0x8, addend: 0x0, symName: __ZN5Eigen8internal29general_matrix_matrix_productIldLi1ELb0EdLi0ELb0ELi0ELi1EE3runElllPKdlS4_lPdlldRNS0_15level3_blockingIddEEPNS0_16GemmParallelInfoIlEE.cold.2, symObjAddr: 0xB498, symBinAddr: 0x10001867C, symSize: 0x28 }
  - { offsetInCU: 0xE1450, offset: 0xE1450, size: 0x8, addend: 0x0, symName: __ZN5Eigen8internal29general_matrix_matrix_productIldLi1ELb0EdLi0ELb0ELi0ELi1EE3runElllPKdlS4_lPdlldRNS0_15level3_blockingIddEEPNS0_16GemmParallelInfoIlEE.cold.1, symObjAddr: 0xB474, symBinAddr: 0x100018658, symSize: 0x24 }
  - { offsetInCU: 0xE1A94, offset: 0xE1A94, size: 0x8, addend: 0x0, symName: __ZN5Eigen8internal22lhs_process_one_packetILi4ELl2ELl1Eddd19__simd128_float64_tS2_dS2_NS0_11gebp_traitsIddLb0ELb0ELi4ELi0EEENS0_16BlasLinearMapperIdlLi0ELi1EEENS0_16blas_data_mapperIdlLi0ELi0ELi1EEEEclERKS8_PKdSD_dllllllilllll, symObjAddr: 0x894C, symBinAddr: 0x100009EEC, symSize: 0x454 }
  - { offsetInCU: 0xE41AE, offset: 0xE41AE, size: 0x8, addend: 0x0, symName: __ZN5Eigen8internal20generic_product_implINS_5BlockINS_6MatrixIdLin1ELin1ELi0ELin1ELin1EEELin1ELin1ELb0EEENS2_INS3_IdLin1ELi1ELi0ELin1ELi1EEELin1ELi1ELb0EEENS_10DenseShapeES8_Li7EE13scaleAndAddToINS2_IS4_Lin1ELi1ELb0EEEEEvRT_RKS5_RKS7_RKd.cold.4, symObjAddr: 0xB52C, symBinAddr: 0x100018710, symSize: 0x24 }
  - { offsetInCU: 0xE41DC, offset: 0xE41DC, size: 0x8, addend: 0x0, symName: __ZN5Eigen8internal20generic_product_implINS_5BlockINS_6MatrixIdLin1ELin1ELi0ELin1ELin1EEELin1ELin1ELb0EEENS2_INS3_IdLin1ELi1ELi0ELin1ELi1EEELin1ELi1ELb0EEENS_10DenseShapeES8_Li7EE13scaleAndAddToINS2_IS4_Lin1ELi1ELb0EEEEEvRT_RKS5_RKS7_RKd.cold.3, symObjAddr: 0xB508, symBinAddr: 0x1000186EC, symSize: 0x24 }
  - { offsetInCU: 0xE424A, offset: 0xE424A, size: 0x8, addend: 0x0, symName: __ZN5Eigen8internal20generic_product_implINS_5BlockINS_6MatrixIdLin1ELin1ELi0ELin1ELin1EEELin1ELin1ELb0EEENS2_INS3_IdLin1ELi1ELi0ELin1ELi1EEELin1ELi1ELb0EEENS_10DenseShapeES8_Li7EE13scaleAndAddToINS2_IS4_Lin1ELi1ELb0EEEEEvRT_RKS5_RKS7_RKd.cold.1, symObjAddr: 0xB4C0, symBinAddr: 0x1000186A4, symSize: 0x24 }
  - { offsetInCU: 0xE42E3, offset: 0xE42E3, size: 0x8, addend: 0x0, symName: __ZN5Eigen8internal20generic_product_implINS_5BlockINS_6MatrixIdLin1ELin1ELi0ELin1ELin1EEELin1ELin1ELb0EEENS2_INS3_IdLin1ELi1ELi0ELin1ELi1EEELin1ELi1ELb0EEENS_10DenseShapeES8_Li7EE13scaleAndAddToINS2_IS4_Lin1ELi1ELb0EEEEEvRT_RKS5_RKS7_RKd.cold.2, symObjAddr: 0xB4E4, symBinAddr: 0x1000186C8, symSize: 0x24 }
  - { offsetInCU: 0xE4C4A, offset: 0xE4C4A, size: 0x8, addend: 0x0, symName: __ZN5Eigen8internal28transposition_matrix_productINS_7ProductINS_9TransposeINS_6MatrixIdLin1ELin1ELi0ELin1ELin1EEEEENS4_IdLin1ELi1ELi0ELin1ELi1EEELi0EEELi1ELb0ENS_10DenseShapeEE3runIS7_NS_14TranspositionsILin1ELin1EiEEEEvRT_RKT0_RKS8_, symObjAddr: 0x96B0, symBinAddr: 0x10000AC50, symSize: 0x2A8 }
  - { offsetInCU: 0xE5867, offset: 0xE5867, size: 0x8, addend: 0x0, symName: __ZN5Eigen8internal26triangular_solver_selectorIKNS_6MatrixIdLin1ELin1ELi0ELin1ELin1EEENS2_IdLin1ELi1ELi0ELin1ELi1EEELi1ELi5ELi0ELi1EE3runERS4_RS5_, symObjAddr: 0x9C48, symBinAddr: 0x10000B1E8, symSize: 0x128 }
  - { offsetInCU: 0xE5AF0, offset: 0xE5AF0, size: 0x8, addend: 0x0, symName: __ZN5Eigen8internal26triangular_solver_selectorIKNS_9TransposeIKNS_6MatrixIdLin1ELin1ELi0ELin1ELin1EEEEENS3_IdLin1ELi1ELi0ELin1ELi1EEELi1ELi6ELi0ELi1EE3runERS7_RS8_, symObjAddr: 0xA6B8, symBinAddr: 0x10000BC58, symSize: 0x12C }
  - { offsetInCU: 0xE5D5A, offset: 0xE5D5A, size: 0x8, addend: 0x0, symName: __ZN5Eigen8internal28transposition_matrix_productINS_6MatrixIdLin1ELi1ELi0ELin1ELi1EEELi1ELb1ENS_10DenseShapeEE3runIS3_NS_14TranspositionsILin1ELin1EiEEEEvRT_RKT0_RKS3_, symObjAddr: 0xA9E0, symBinAddr: 0x10000BF80, symSize: 0x198 }
  - { offsetInCU: 0xE645F, offset: 0xE645F, size: 0x8, addend: 0x0, symName: __Z19regressionDebuggingRKNSt3__16vectorIdNS_9allocatorIdEEEES5_S5_iN5Eigen6MatrixIdLin1ELi1ELi0ELin1ELi1EEES8_.cold.1, symObjAddr: 0xAB78, symBinAddr: 0x100017D5C, symSize: 0x28 }
  - { offsetInCU: 0xE6488, offset: 0xE6488, size: 0x8, addend: 0x0, symName: __ZNK5Eigen4LDLTINS_6MatrixIdLin1ELin1ELi0ELin1ELin1EEELi1EE22_solve_impl_transposedILb1ENS_7ProductINS_9TransposeIS2_EENS1_IdLin1ELi1ELi0ELin1ELi1EEELi0EEES8_EEvRKT0_RT1_.cold.5, symObjAddr: 0xB5E8, symBinAddr: 0x1000187CC, symSize: 0x24 }
  - { offsetInCU: 0xE64E1, offset: 0xE64E1, size: 0x8, addend: 0x0, symName: __ZNK5Eigen4LDLTINS_6MatrixIdLin1ELin1ELi0ELin1ELin1EEELi1EE22_solve_impl_transposedILb1ENS_7ProductINS_9TransposeIS2_EENS1_IdLin1ELi1ELi0ELin1ELi1EEELi0EEES8_EEvRKT0_RT1_.cold.6, symObjAddr: 0xB60C, symBinAddr: 0x1000187F0, symSize: 0x24 }
  - { offsetInCU: 0xE653A, offset: 0xE653A, size: 0x8, addend: 0x0, symName: __ZNK5Eigen4LDLTINS_6MatrixIdLin1ELin1ELi0ELin1ELin1EEELi1EE22_solve_impl_transposedILb1ENS_7ProductINS_9TransposeIS2_EENS1_IdLin1ELi1ELi0ELin1ELi1EEELi0EEES8_EEvRKT0_RT1_.cold.8, symObjAddr: 0xB658, symBinAddr: 0x10001883C, symSize: 0x28 }
  - { offsetInCU: 0xE657E, offset: 0xE657E, size: 0x8, addend: 0x0, symName: __ZNK5Eigen4LDLTINS_6MatrixIdLin1ELin1ELi0ELin1ELin1EEELi1EE22_solve_impl_transposedILb1ENS_7ProductINS_9TransposeIS2_EENS1_IdLin1ELi1ELi0ELin1ELi1EEELi0EEES8_EEvRKT0_RT1_.cold.2, symObjAddr: 0xB578, symBinAddr: 0x10001875C, symSize: 0x24 }
  - { offsetInCU: 0xE65EB, offset: 0xE65EB, size: 0x8, addend: 0x0, symName: __ZNK5Eigen4LDLTINS_6MatrixIdLin1ELin1ELi0ELin1ELin1EEELi1EE22_solve_impl_transposedILb1ENS_7ProductINS_9TransposeIS2_EENS1_IdLin1ELi1ELi0ELin1ELi1EEELi0EEES8_EEvRKT0_RT1_.cold.4, symObjAddr: 0xB5C0, symBinAddr: 0x1000187A4, symSize: 0x28 }
  - { offsetInCU: 0xE662F, offset: 0xE662F, size: 0x8, addend: 0x0, symName: __ZNK5Eigen4LDLTINS_6MatrixIdLin1ELin1ELi0ELin1ELin1EEELi1EE22_solve_impl_transposedILb1ENS_7ProductINS_9TransposeIS2_EENS1_IdLin1ELi1ELi0ELin1ELi1EEELi0EEES8_EEvRKT0_RT1_.cold.10, symObjAddr: 0xB6A4, symBinAddr: 0x100018888, symSize: 0x24 }
  - { offsetInCU: 0xE6688, offset: 0xE6688, size: 0x8, addend: 0x0, symName: __ZNK5Eigen4LDLTINS_6MatrixIdLin1ELin1ELi0ELin1ELin1EEELi1EE22_solve_impl_transposedILb1ENS_7ProductINS_9TransposeIS2_EENS1_IdLin1ELi1ELi0ELin1ELi1EEELi0EEES8_EEvRKT0_RT1_.cold.1, symObjAddr: 0xB550, symBinAddr: 0x100018734, symSize: 0x28 }
  - { offsetInCU: 0xE66B6, offset: 0xE66B6, size: 0x8, addend: 0x0, symName: __ZNK5Eigen4LDLTINS_6MatrixIdLin1ELin1ELi0ELin1ELin1EEELi1EE22_solve_impl_transposedILb1ENS_7ProductINS_9TransposeIS2_EENS1_IdLin1ELi1ELi0ELin1ELi1EEELi0EEES8_EEvRKT0_RT1_.cold.3, symObjAddr: 0xB59C, symBinAddr: 0x100018780, symSize: 0x24 }
  - { offsetInCU: 0xE670F, offset: 0xE670F, size: 0x8, addend: 0x0, symName: __ZNK5Eigen4LDLTINS_6MatrixIdLin1ELin1ELi0ELin1ELin1EEELi1EE22_solve_impl_transposedILb1ENS_7ProductINS_9TransposeIS2_EENS1_IdLin1ELi1ELi0ELin1ELi1EEELi0EEES8_EEvRKT0_RT1_.cold.7, symObjAddr: 0xB630, symBinAddr: 0x100018814, symSize: 0x28 }
  - { offsetInCU: 0xE673D, offset: 0xE673D, size: 0x8, addend: 0x0, symName: __ZNK5Eigen4LDLTINS_6MatrixIdLin1ELin1ELi0ELin1ELin1EEELi1EE22_solve_impl_transposedILb1ENS_7ProductINS_9TransposeIS2_EENS1_IdLin1ELi1ELi0ELin1ELi1EEELi0EEES8_EEvRKT0_RT1_.cold.9, symObjAddr: 0xB680, symBinAddr: 0x100018864, symSize: 0x24 }
  - { offsetInCU: 0xE6D4D, offset: 0xE6D4D, size: 0x8, addend: 0x0, symName: __ZN5Eigen8internal20generic_product_implINS_9TransposeINS_6MatrixIdLin1ELin1ELi0ELin1ELin1EEEEENS3_IdLin1ELi1ELi0ELin1ELi1EEENS_10DenseShapeES7_Li7EE13scaleAndAddToIS6_EEvRT_RKS5_RKS6_RKd, symObjAddr: 0x9958, symBinAddr: 0x10000AEF8, symSize: 0x168 }
  - { offsetInCU: 0xE78A8, offset: 0xE78A8, size: 0x8, addend: 0x0, symName: __ZN5Eigen8internal19gemv_dense_selectorILi2ELi1ELb1EE3runINS_9TransposeINS_6MatrixIdLin1ELin1ELi0ELin1ELin1EEEEENS5_IdLin1ELi1ELi0ELin1ELi1EEES8_EEvRKT_RKT0_RT1_RKNSF_6ScalarE, symObjAddr: 0x9AC0, symBinAddr: 0x10000B060, symSize: 0x188 }
  - { offsetInCU: 0xE7D06, offset: 0xE7D06, size: 0x8, addend: 0x0, symName: __ZN5Eigen8internal20generic_product_implINS_9TransposeINS_6MatrixIdLin1ELin1ELi0ELin1ELin1EEEEENS3_IdLin1ELi1ELi0ELin1ELi1EEENS_10DenseShapeES7_Li7EE13scaleAndAddToIS6_EEvRT_RKS5_RKS6_RKd.cold.4, symObjAddr: 0xB734, symBinAddr: 0x100018918, symSize: 0x24 }
  - { offsetInCU: 0xE7D34, offset: 0xE7D34, size: 0x8, addend: 0x0, symName: __ZN5Eigen8internal20generic_product_implINS_9TransposeINS_6MatrixIdLin1ELin1ELi0ELin1ELin1EEEEENS3_IdLin1ELi1ELi0ELin1ELi1EEENS_10DenseShapeES7_Li7EE13scaleAndAddToIS6_EEvRT_RKS5_RKS6_RKd.cold.3, symObjAddr: 0xB710, symBinAddr: 0x1000188F4, symSize: 0x24 }
  - { offsetInCU: 0xE7DA2, offset: 0xE7DA2, size: 0x8, addend: 0x0, symName: __ZN5Eigen8internal20generic_product_implINS_9TransposeINS_6MatrixIdLin1ELin1ELi0ELin1ELin1EEEEENS3_IdLin1ELi1ELi0ELin1ELi1EEENS_10DenseShapeES7_Li7EE13scaleAndAddToIS6_EEvRT_RKS5_RKS6_RKd.cold.1, symObjAddr: 0xB6C8, symBinAddr: 0x1000188AC, symSize: 0x24 }
  - { offsetInCU: 0xE7E3B, offset: 0xE7E3B, size: 0x8, addend: 0x0, symName: __ZN5Eigen8internal20generic_product_implINS_9TransposeINS_6MatrixIdLin1ELin1ELi0ELin1ELin1EEEEENS3_IdLin1ELi1ELi0ELin1ELi1EEENS_10DenseShapeES7_Li7EE13scaleAndAddToIS6_EEvRT_RKS5_RKS6_RKd.cold.2, symObjAddr: 0xB6EC, symBinAddr: 0x1000188D0, symSize: 0x24 }
  - { offsetInCU: 0xE8060, offset: 0xE8060, size: 0x8, addend: 0x0, symName: __ZN5Eigen8internal19gemv_dense_selectorILi2ELi1ELb1EE3runINS_9TransposeINS_6MatrixIdLin1ELin1ELi0ELin1ELin1EEEEENS5_IdLin1ELi1ELi0ELin1ELi1EEES8_EEvRKT_RKT0_RT1_RKNSF_6ScalarE.cold.1, symObjAddr: 0xB758, symBinAddr: 0x10001893C, symSize: 0x24 }
  - { offsetInCU: 0xE8096, offset: 0xE8096, size: 0x8, addend: 0x0, symName: __ZN5Eigen8internal26triangular_solver_selectorIKNS_6MatrixIdLin1ELin1ELi0ELin1ELin1EEENS2_IdLin1ELi1ELi0ELin1ELi1EEELi1ELi5ELi0ELi1EE3runERS4_RS5_.cold.1, symObjAddr: 0xB77C, symBinAddr: 0x100018960, symSize: 0x24 }
  - { offsetInCU: 0xE8626, offset: 0xE8626, size: 0x8, addend: 0x0, symName: __ZN5Eigen8internal23triangular_solve_vectorIddlLi1ELi5ELb0ELi0EE3runElPKdlPd.cold.2, symObjAddr: 0xB7C4, symBinAddr: 0x1000189A8, symSize: 0x24 }
  - { offsetInCU: 0xE8693, offset: 0xE8693, size: 0x8, addend: 0x0, symName: __ZN5Eigen8internal23triangular_solve_vectorIddlLi1ELi5ELb0ELi0EE3runElPKdlPd.cold.3, symObjAddr: 0xB7E8, symBinAddr: 0x1000189CC, symSize: 0x24 }
  - { offsetInCU: 0xE86EB, offset: 0xE86EB, size: 0x8, addend: 0x0, symName: __ZN5Eigen8internal23triangular_solve_vectorIddlLi1ELi5ELb0ELi0EE3runElPKdlPd.cold.1, symObjAddr: 0xB7A0, symBinAddr: 0x100018984, symSize: 0x24 }
  - { offsetInCU: 0xE8742, offset: 0xE8742, size: 0x8, addend: 0x0, symName: __ZN5Eigen8internal26triangular_solver_selectorIKNS_9TransposeIKNS_6MatrixIdLin1ELin1ELi0ELin1ELin1EEEEENS3_IdLin1ELi1ELi0ELin1ELi1EEELi1ELi6ELi0ELi1EE3runERS7_RS8_.cold.1, symObjAddr: 0xB80C, symBinAddr: 0x1000189F0, symSize: 0x24 }
  - { offsetInCU: 0xE8ED1, offset: 0xE8ED1, size: 0x8, addend: 0x0, symName: __ZN5Eigen8internal23triangular_solve_vectorIddlLi1ELi6ELb0ELi1EE3runElPKdlPd.cold.1, symObjAddr: 0xB830, symBinAddr: 0x100018A14, symSize: 0x24 }
  - { offsetInCU: 0xE8F28, offset: 0xE8F28, size: 0x8, addend: 0x0, symName: __ZN5Eigen8internal23triangular_solve_vectorIddlLi1ELi6ELb0ELi1EE3runElPKdlPd.cold.3, symObjAddr: 0xB878, symBinAddr: 0x100018A5C, symSize: 0x24 }
  - { offsetInCU: 0xE8FA4, offset: 0xE8FA4, size: 0x8, addend: 0x0, symName: __ZN5Eigen8internal23triangular_solve_vectorIddlLi1ELi6ELb0ELi1EE3runElPKdlPd.cold.2, symObjAddr: 0xB854, symBinAddr: 0x100018A38, symSize: 0x24 }
  - { offsetInCU: 0xE8FFC, offset: 0xE8FFC, size: 0x8, addend: 0x0, symName: __ZN5Eigen8internal28transposition_matrix_productINS_6MatrixIdLin1ELi1ELi0ELin1ELi1EEELi1ELb1ENS_10DenseShapeEE3runIS3_NS_14TranspositionsILin1ELin1EiEEEEvRT_RKT0_RKS3_.cold.1, symObjAddr: 0xB89C, symBinAddr: 0x100018A80, symSize: 0x24 }
  - { offsetInCU: 0xE9055, offset: 0xE9055, size: 0x8, addend: 0x0, symName: __ZN5Eigen8internal28transposition_matrix_productINS_6MatrixIdLin1ELi1ELi0ELin1ELi1EEELi1ELb1ENS_10DenseShapeEE3runIS3_NS_14TranspositionsILin1ELin1EiEEEEvRT_RKT0_RKS3_.cold.2, symObjAddr: 0xB8C0, symBinAddr: 0x100018AA4, symSize: 0x24 }
  - { offsetInCU: 0xE90AE, offset: 0xE90AE, size: 0x8, addend: 0x0, symName: __ZN5Eigen8internal28transposition_matrix_productINS_6MatrixIdLin1ELi1ELi0ELin1ELi1EEELi1ELb1ENS_10DenseShapeEE3runIS3_NS_14TranspositionsILin1ELin1EiEEEEvRT_RKT0_RKS3_.cold.3, symObjAddr: 0xB8E4, symBinAddr: 0x100018AC8, symSize: 0x24 }
  - { offsetInCU: 0xE918B, offset: 0xE918B, size: 0x8, addend: 0x0, symName: _OUTLINED_FUNCTION_0, symObjAddr: 0xB908, symBinAddr: 0x10000C118, symSize: 0x8 }
  - { offsetInCU: 0xE91A3, offset: 0xE91A3, size: 0x8, addend: 0x0, symName: _OUTLINED_FUNCTION_1, symObjAddr: 0xB910, symBinAddr: 0x10000C120, symSize: 0x8 }
  - { offsetInCU: 0xE91BB, offset: 0xE91BB, size: 0x8, addend: 0x0, symName: _OUTLINED_FUNCTION_2, symObjAddr: 0xB918, symBinAddr: 0x10000C128, symSize: 0x8 }
  - { offsetInCU: 0xE91D3, offset: 0xE91D3, size: 0x8, addend: 0x0, symName: _OUTLINED_FUNCTION_3, symObjAddr: 0xB920, symBinAddr: 0x10000C130, symSize: 0x8 }
  - { offsetInCU: 0xE91EB, offset: 0xE91EB, size: 0x8, addend: 0x0, symName: _OUTLINED_FUNCTION_4, symObjAddr: 0xB928, symBinAddr: 0x10000C138, symSize: 0x8 }
  - { offsetInCU: 0xE9203, offset: 0xE9203, size: 0x8, addend: 0x0, symName: _OUTLINED_FUNCTION_5, symObjAddr: 0xB930, symBinAddr: 0x10000C140, symSize: 0x8 }
  - { offsetInCU: 0xE921B, offset: 0xE921B, size: 0x8, addend: 0x0, symName: _OUTLINED_FUNCTION_6, symObjAddr: 0xB938, symBinAddr: 0x10000C148, symSize: 0x8 }
  - { offsetInCU: 0xE9233, offset: 0xE9233, size: 0x8, addend: 0x0, symName: _OUTLINED_FUNCTION_7, symObjAddr: 0xB940, symBinAddr: 0x10000C150, symSize: 0x8 }
  - { offsetInCU: 0xE924B, offset: 0xE924B, size: 0x8, addend: 0x0, symName: _OUTLINED_FUNCTION_8, symObjAddr: 0xB948, symBinAddr: 0x10000C158, symSize: 0x8 }
  - { offsetInCU: 0xE9263, offset: 0xE9263, size: 0x8, addend: 0x0, symName: _OUTLINED_FUNCTION_9, symObjAddr: 0xB950, symBinAddr: 0x10000C160, symSize: 0x8 }
  - { offsetInCU: 0x26, offset: 0xE92CD, size: 0x8, addend: 0x0, symName: __Z28pushManuallyExecutableEventsP10Properties, symObjAddr: 0x0, symBinAddr: 0x10000C168, symSize: 0x6B4 }
  - { offsetInCU: 0xA84C, offset: 0xF3AF3, size: 0x8, addend: 0x0, symName: __Z28pushManuallyExecutableEventsP10Properties, symObjAddr: 0x0, symBinAddr: 0x10000C168, symSize: 0x6B4 }
  - { offsetInCU: 0xCB03, offset: 0xF5DAA, size: 0x8, addend: 0x0, symName: __ZN5EventC1ERKS_, symObjAddr: 0x6B4, symBinAddr: 0x10000C81C, symSize: 0x164 }
  - { offsetInCU: 0xCF87, offset: 0xF622E, size: 0x8, addend: 0x0, symName: __ZN5EventD1Ev, symObjAddr: 0x818, symBinAddr: 0x10000C980, symSize: 0xB8 }
  - { offsetInCU: 0xD400, offset: 0xF66A7, size: 0x8, addend: 0x0, symName: __ZNSt3__14pairINS_12basic_stringIcNS_11char_traitsIcEENS_9allocatorIcEEEES6_EC2B8ue170006ERKS7_, symObjAddr: 0x8DC, symBinAddr: 0x10000CA44, symSize: 0x158 }
  - { offsetInCU: 0xDC39, offset: 0xF6EE0, size: 0x8, addend: 0x0, symName: __Z14updatePlaybackP10Properties, symObjAddr: 0x8D0, symBinAddr: 0x10000CA38, symSize: 0xC }
  - { offsetInCU: 0xE54B, offset: 0x106047, size: 0x8, addend: 0x0, symName: __Z28pushRecordedExecutableEventsP10Properties, symObjAddr: 0x0, symBinAddr: 0x10000CB9C, symSize: 0x28AC }
  - { offsetInCU: 0x1FA8D, offset: 0x117589, size: 0x8, addend: 0x0, symName: __ZNSt3__110__function12__value_funcIFffEE4swapB8ue170006ERS3_, symObjAddr: 0x2D6C, symBinAddr: 0x10000F500, symSize: 0x198 }
  - { offsetInCU: 0x205C8, offset: 0x1180C4, size: 0x8, addend: 0x0, symName: '__ZNSt3__110__function6__funcIZ28pushRecordedExecutableEventsP10PropertiesE3$_0NS_9allocatorIS4_EEFffEED1Ev', symObjAddr: 0x2CB4, symBinAddr: 0x10000F448, symSize: 0x4 }
  - { offsetInCU: 0x205F4, offset: 0x1180F0, size: 0x8, addend: 0x0, symName: '__ZNSt3__110__function6__funcIZ28pushRecordedExecutableEventsP10PropertiesE3$_0NS_9allocatorIS4_EEFffEED0Ev', symObjAddr: 0x2CB8, symBinAddr: 0x10000F44C, symSize: 0x4 }
  - { offsetInCU: 0x206AA, offset: 0x1181A6, size: 0x8, addend: 0x0, symName: '__ZNKSt3__110__function6__funcIZ28pushRecordedExecutableEventsP10PropertiesE3$_0NS_9allocatorIS4_EEFffEE7__cloneEv', symObjAddr: 0x2CBC, symBinAddr: 0x10000F450, symSize: 0x24 }
  - { offsetInCU: 0x207F2, offset: 0x1182EE, size: 0x8, addend: 0x0, symName: '__ZNKSt3__110__function6__funcIZ28pushRecordedExecutableEventsP10PropertiesE3$_0NS_9allocatorIS4_EEFffEE7__cloneEPNS0_6__baseIS7_EE', symObjAddr: 0x2CE0, symBinAddr: 0x10000F474, symSize: 0x10 }
  - { offsetInCU: 0x20829, offset: 0x118325, size: 0x8, addend: 0x0, symName: '__ZNKSt3__110__function6__funcIZ28pushRecordedExecutableEventsP10PropertiesE3$_0NS_9allocatorIS4_EEFffEE7__cloneEPNS0_6__baseIS7_EE', symObjAddr: 0x2CE0, symBinAddr: 0x10000F474, symSize: 0x10 }
  - { offsetInCU: 0x20845, offset: 0x118341, size: 0x8, addend: 0x0, symName: '__ZNKSt3__110__function6__funcIZ28pushRecordedExecutableEventsP10PropertiesE3$_0NS_9allocatorIS4_EEFffEE7__cloneEPNS0_6__baseIS7_EE', symObjAddr: 0x2CE0, symBinAddr: 0x10000F474, symSize: 0x10 }
  - { offsetInCU: 0x20860, offset: 0x11835C, size: 0x8, addend: 0x0, symName: '__ZNSt3__110__function6__funcIZ28pushRecordedExecutableEventsP10PropertiesE3$_0NS_9allocatorIS4_EEFffEE7destroyEv', symObjAddr: 0x2CF0, symBinAddr: 0x10000F484, symSize: 0x4 }
  - { offsetInCU: 0x208B1, offset: 0x1183AD, size: 0x8, addend: 0x0, symName: '__ZNSt3__110__function6__funcIZ28pushRecordedExecutableEventsP10PropertiesE3$_0NS_9allocatorIS4_EEFffEE18destroy_deallocateEv', symObjAddr: 0x2CF4, symBinAddr: 0x10000F488, symSize: 0x4 }
  - { offsetInCU: 0x208E7, offset: 0x1183E3, size: 0x8, addend: 0x0, symName: '__ZNSt3__110__function6__funcIZ28pushRecordedExecutableEventsP10PropertiesE3$_0NS_9allocatorIS4_EEFffEE18destroy_deallocateEv', symObjAddr: 0x2CF4, symBinAddr: 0x10000F488, symSize: 0x4 }
  - { offsetInCU: 0x2090A, offset: 0x118406, size: 0x8, addend: 0x0, symName: '__ZNSt3__110__function6__funcIZ28pushRecordedExecutableEventsP10PropertiesE3$_0NS_9allocatorIS4_EEFffEE18destroy_deallocateEv', symObjAddr: 0x2CF4, symBinAddr: 0x10000F488, symSize: 0x4 }
  - { offsetInCU: 0x20936, offset: 0x118432, size: 0x8, addend: 0x0, symName: '__ZNSt3__110__function6__funcIZ28pushRecordedExecutableEventsP10PropertiesE3$_0NS_9allocatorIS4_EEFffEE18destroy_deallocateEv', symObjAddr: 0x2CF4, symBinAddr: 0x10000F488, symSize: 0x4 }
  - { offsetInCU: 0x2095C, offset: 0x118458, size: 0x8, addend: 0x0, symName: '__ZNSt3__110__function6__funcIZ28pushRecordedExecutableEventsP10PropertiesE3$_0NS_9allocatorIS4_EEFffEE18destroy_deallocateEv', symObjAddr: 0x2CF4, symBinAddr: 0x10000F488, symSize: 0x4 }
  - { offsetInCU: 0x20985, offset: 0x118481, size: 0x8, addend: 0x0, symName: '__ZNSt3__110__function6__funcIZ28pushRecordedExecutableEventsP10PropertiesE3$_0NS_9allocatorIS4_EEFffEEclEOf', symObjAddr: 0x2CF8, symBinAddr: 0x10000F48C, symSize: 0x8 }
  - { offsetInCU: 0x20A10, offset: 0x11850C, size: 0x8, addend: 0x0, symName: '__ZNKSt3__110__function6__funcIZ28pushRecordedExecutableEventsP10PropertiesE3$_0NS_9allocatorIS4_EEFffEE6targetERKSt9type_info', symObjAddr: 0x2D00, symBinAddr: 0x10000F494, symSize: 0x60 }
  - { offsetInCU: 0x20A95, offset: 0x118591, size: 0x8, addend: 0x0, symName: '__ZNKSt3__110__function6__funcIZ28pushRecordedExecutableEventsP10PropertiesE3$_0NS_9allocatorIS4_EEFffEE11target_typeEv', symObjAddr: 0x2D60, symBinAddr: 0x10000F4F4, symSize: 0xC }
  - { offsetInCU: 0x20ABF, offset: 0x1185BB, size: 0x8, addend: 0x0, symName: '__ZNSt3__110__function6__funcIZ28pushRecordedExecutableEventsP10PropertiesE3$_1NS_9allocatorIS4_EEFffEED1Ev', symObjAddr: 0x2F04, symBinAddr: 0x10000F698, symSize: 0x4 }
  - { offsetInCU: 0x20AEB, offset: 0x1185E7, size: 0x8, addend: 0x0, symName: '__ZNSt3__110__function6__funcIZ28pushRecordedExecutableEventsP10PropertiesE3$_1NS_9allocatorIS4_EEFffEED0Ev', symObjAddr: 0x2F08, symBinAddr: 0x10000F69C, symSize: 0x4 }
  - { offsetInCU: 0x20BA1, offset: 0x11869D, size: 0x8, addend: 0x0, symName: '__ZNKSt3__110__function6__funcIZ28pushRecordedExecutableEventsP10PropertiesE3$_1NS_9allocatorIS4_EEFffEE7__cloneEv', symObjAddr: 0x2F0C, symBinAddr: 0x10000F6A0, symSize: 0x24 }
  - { offsetInCU: 0x20CE9, offset: 0x1187E5, size: 0x8, addend: 0x0, symName: '__ZNKSt3__110__function6__funcIZ28pushRecordedExecutableEventsP10PropertiesE3$_1NS_9allocatorIS4_EEFffEE7__cloneEPNS0_6__baseIS7_EE', symObjAddr: 0x2F30, symBinAddr: 0x10000F6C4, symSize: 0x10 }
  - { offsetInCU: 0x20D20, offset: 0x11881C, size: 0x8, addend: 0x0, symName: '__ZNKSt3__110__function6__funcIZ28pushRecordedExecutableEventsP10PropertiesE3$_1NS_9allocatorIS4_EEFffEE7__cloneEPNS0_6__baseIS7_EE', symObjAddr: 0x2F30, symBinAddr: 0x10000F6C4, symSize: 0x10 }
  - { offsetInCU: 0x20D3C, offset: 0x118838, size: 0x8, addend: 0x0, symName: '__ZNKSt3__110__function6__funcIZ28pushRecordedExecutableEventsP10PropertiesE3$_1NS_9allocatorIS4_EEFffEE7__cloneEPNS0_6__baseIS7_EE', symObjAddr: 0x2F30, symBinAddr: 0x10000F6C4, symSize: 0x10 }
  - { offsetInCU: 0x20D57, offset: 0x118853, size: 0x8, addend: 0x0, symName: '__ZNSt3__110__function6__funcIZ28pushRecordedExecutableEventsP10PropertiesE3$_1NS_9allocatorIS4_EEFffEE7destroyEv', symObjAddr: 0x2F40, symBinAddr: 0x10000F6D4, symSize: 0x4 }
  - { offsetInCU: 0x20DA8, offset: 0x1188A4, size: 0x8, addend: 0x0, symName: '__ZNSt3__110__function6__funcIZ28pushRecordedExecutableEventsP10PropertiesE3$_1NS_9allocatorIS4_EEFffEE18destroy_deallocateEv', symObjAddr: 0x2F44, symBinAddr: 0x10000F6D8, symSize: 0x4 }
  - { offsetInCU: 0x20DDE, offset: 0x1188DA, size: 0x8, addend: 0x0, symName: '__ZNSt3__110__function6__funcIZ28pushRecordedExecutableEventsP10PropertiesE3$_1NS_9allocatorIS4_EEFffEE18destroy_deallocateEv', symObjAddr: 0x2F44, symBinAddr: 0x10000F6D8, symSize: 0x4 }
  - { offsetInCU: 0x20E01, offset: 0x1188FD, size: 0x8, addend: 0x0, symName: '__ZNSt3__110__function6__funcIZ28pushRecordedExecutableEventsP10PropertiesE3$_1NS_9allocatorIS4_EEFffEE18destroy_deallocateEv', symObjAddr: 0x2F44, symBinAddr: 0x10000F6D8, symSize: 0x4 }
  - { offsetInCU: 0x20E2D, offset: 0x118929, size: 0x8, addend: 0x0, symName: '__ZNSt3__110__function6__funcIZ28pushRecordedExecutableEventsP10PropertiesE3$_1NS_9allocatorIS4_EEFffEE18destroy_deallocateEv', symObjAddr: 0x2F44, symBinAddr: 0x10000F6D8, symSize: 0x4 }
  - { offsetInCU: 0x20E53, offset: 0x11894F, size: 0x8, addend: 0x0, symName: '__ZNSt3__110__function6__funcIZ28pushRecordedExecutableEventsP10PropertiesE3$_1NS_9allocatorIS4_EEFffEE18destroy_deallocateEv', symObjAddr: 0x2F44, symBinAddr: 0x10000F6D8, symSize: 0x4 }
  - { offsetInCU: 0x20E7C, offset: 0x118978, size: 0x8, addend: 0x0, symName: '__ZNSt3__110__function6__funcIZ28pushRecordedExecutableEventsP10PropertiesE3$_1NS_9allocatorIS4_EEFffEEclEOf', symObjAddr: 0x2F48, symBinAddr: 0x10000F6DC, symSize: 0x8 }
  - { offsetInCU: 0x20EAD, offset: 0x1189A9, size: 0x8, addend: 0x0, symName: '__ZNKSt3__110__function6__funcIZ28pushRecordedExecutableEventsP10PropertiesE3$_1NS_9allocatorIS4_EEFffEE6targetERKSt9type_info', symObjAddr: 0x2F50, symBinAddr: 0x10000F6E4, symSize: 0x60 }
  - { offsetInCU: 0x20F32, offset: 0x118A2E, size: 0x8, addend: 0x0, symName: '__ZNKSt3__110__function6__funcIZ28pushRecordedExecutableEventsP10PropertiesE3$_1NS_9allocatorIS4_EEFffEE11target_typeEv', symObjAddr: 0x2FB0, symBinAddr: 0x10000F744, symSize: 0xC }
  - { offsetInCU: 0x20F57, offset: 0x118A53, size: 0x8, addend: 0x0, symName: '__ZNSt3__110__function6__funcIZ28pushRecordedExecutableEventsP10PropertiesE3$_2NS_9allocatorIS4_EEFffEED1Ev', symObjAddr: 0x2FBC, symBinAddr: 0x10000F750, symSize: 0x4 }
  - { offsetInCU: 0x20F83, offset: 0x118A7F, size: 0x8, addend: 0x0, symName: '__ZNSt3__110__function6__funcIZ28pushRecordedExecutableEventsP10PropertiesE3$_2NS_9allocatorIS4_EEFffEED0Ev', symObjAddr: 0x2FC0, symBinAddr: 0x10000F754, symSize: 0x4 }
  - { offsetInCU: 0x21039, offset: 0x118B35, size: 0x8, addend: 0x0, symName: '__ZNKSt3__110__function6__funcIZ28pushRecordedExecutableEventsP10PropertiesE3$_2NS_9allocatorIS4_EEFffEE7__cloneEv', symObjAddr: 0x2FC4, symBinAddr: 0x10000F758, symSize: 0x24 }
  - { offsetInCU: 0x21181, offset: 0x118C7D, size: 0x8, addend: 0x0, symName: '__ZNKSt3__110__function6__funcIZ28pushRecordedExecutableEventsP10PropertiesE3$_2NS_9allocatorIS4_EEFffEE7__cloneEPNS0_6__baseIS7_EE', symObjAddr: 0x2FE8, symBinAddr: 0x10000F77C, symSize: 0x10 }
  - { offsetInCU: 0x211B8, offset: 0x118CB4, size: 0x8, addend: 0x0, symName: '__ZNKSt3__110__function6__funcIZ28pushRecordedExecutableEventsP10PropertiesE3$_2NS_9allocatorIS4_EEFffEE7__cloneEPNS0_6__baseIS7_EE', symObjAddr: 0x2FE8, symBinAddr: 0x10000F77C, symSize: 0x10 }
  - { offsetInCU: 0x211D4, offset: 0x118CD0, size: 0x8, addend: 0x0, symName: '__ZNKSt3__110__function6__funcIZ28pushRecordedExecutableEventsP10PropertiesE3$_2NS_9allocatorIS4_EEFffEE7__cloneEPNS0_6__baseIS7_EE', symObjAddr: 0x2FE8, symBinAddr: 0x10000F77C, symSize: 0x10 }
  - { offsetInCU: 0x211EF, offset: 0x118CEB, size: 0x8, addend: 0x0, symName: '__ZNSt3__110__function6__funcIZ28pushRecordedExecutableEventsP10PropertiesE3$_2NS_9allocatorIS4_EEFffEE7destroyEv', symObjAddr: 0x2FF8, symBinAddr: 0x10000F78C, symSize: 0x4 }
  - { offsetInCU: 0x21240, offset: 0x118D3C, size: 0x8, addend: 0x0, symName: '__ZNSt3__110__function6__funcIZ28pushRecordedExecutableEventsP10PropertiesE3$_2NS_9allocatorIS4_EEFffEE18destroy_deallocateEv', symObjAddr: 0x2FFC, symBinAddr: 0x10000F790, symSize: 0x4 }
  - { offsetInCU: 0x21276, offset: 0x118D72, size: 0x8, addend: 0x0, symName: '__ZNSt3__110__function6__funcIZ28pushRecordedExecutableEventsP10PropertiesE3$_2NS_9allocatorIS4_EEFffEE18destroy_deallocateEv', symObjAddr: 0x2FFC, symBinAddr: 0x10000F790, symSize: 0x4 }
  - { offsetInCU: 0x21299, offset: 0x118D95, size: 0x8, addend: 0x0, symName: '__ZNSt3__110__function6__funcIZ28pushRecordedExecutableEventsP10PropertiesE3$_2NS_9allocatorIS4_EEFffEE18destroy_deallocateEv', symObjAddr: 0x2FFC, symBinAddr: 0x10000F790, symSize: 0x4 }
  - { offsetInCU: 0x212C5, offset: 0x118DC1, size: 0x8, addend: 0x0, symName: '__ZNSt3__110__function6__funcIZ28pushRecordedExecutableEventsP10PropertiesE3$_2NS_9allocatorIS4_EEFffEE18destroy_deallocateEv', symObjAddr: 0x2FFC, symBinAddr: 0x10000F790, symSize: 0x4 }
  - { offsetInCU: 0x212EB, offset: 0x118DE7, size: 0x8, addend: 0x0, symName: '__ZNSt3__110__function6__funcIZ28pushRecordedExecutableEventsP10PropertiesE3$_2NS_9allocatorIS4_EEFffEE18destroy_deallocateEv', symObjAddr: 0x2FFC, symBinAddr: 0x10000F790, symSize: 0x4 }
  - { offsetInCU: 0x21314, offset: 0x118E10, size: 0x8, addend: 0x0, symName: '__ZNSt3__110__function6__funcIZ28pushRecordedExecutableEventsP10PropertiesE3$_2NS_9allocatorIS4_EEFffEEclEOf', symObjAddr: 0x3000, symBinAddr: 0x10000F794, symSize: 0x8 }
  - { offsetInCU: 0x21345, offset: 0x118E41, size: 0x8, addend: 0x0, symName: '__ZNKSt3__110__function6__funcIZ28pushRecordedExecutableEventsP10PropertiesE3$_2NS_9allocatorIS4_EEFffEE6targetERKSt9type_info', symObjAddr: 0x3008, symBinAddr: 0x10000F79C, symSize: 0x60 }
  - { offsetInCU: 0x213CA, offset: 0x118EC6, size: 0x8, addend: 0x0, symName: '__ZNKSt3__110__function6__funcIZ28pushRecordedExecutableEventsP10PropertiesE3$_2NS_9allocatorIS4_EEFffEE11target_typeEv', symObjAddr: 0x3068, symBinAddr: 0x10000F7FC, symSize: 0xC }
  - { offsetInCU: 0x213EF, offset: 0x118EEB, size: 0x8, addend: 0x0, symName: '__ZNSt3__110__function6__funcIZ28pushRecordedExecutableEventsP10PropertiesE3$_3NS_9allocatorIS4_EEFffEED1Ev', symObjAddr: 0x3074, symBinAddr: 0x10000F808, symSize: 0x4 }
  - { offsetInCU: 0x2141B, offset: 0x118F17, size: 0x8, addend: 0x0, symName: '__ZNSt3__110__function6__funcIZ28pushRecordedExecutableEventsP10PropertiesE3$_3NS_9allocatorIS4_EEFffEED0Ev', symObjAddr: 0x3078, symBinAddr: 0x10000F80C, symSize: 0x4 }
  - { offsetInCU: 0x214D1, offset: 0x118FCD, size: 0x8, addend: 0x0, symName: '__ZNKSt3__110__function6__funcIZ28pushRecordedExecutableEventsP10PropertiesE3$_3NS_9allocatorIS4_EEFffEE7__cloneEv', symObjAddr: 0x307C, symBinAddr: 0x10000F810, symSize: 0x24 }
  - { offsetInCU: 0x21619, offset: 0x119115, size: 0x8, addend: 0x0, symName: '__ZNKSt3__110__function6__funcIZ28pushRecordedExecutableEventsP10PropertiesE3$_3NS_9allocatorIS4_EEFffEE7__cloneEPNS0_6__baseIS7_EE', symObjAddr: 0x30A0, symBinAddr: 0x10000F834, symSize: 0x10 }
  - { offsetInCU: 0x21650, offset: 0x11914C, size: 0x8, addend: 0x0, symName: '__ZNKSt3__110__function6__funcIZ28pushRecordedExecutableEventsP10PropertiesE3$_3NS_9allocatorIS4_EEFffEE7__cloneEPNS0_6__baseIS7_EE', symObjAddr: 0x30A0, symBinAddr: 0x10000F834, symSize: 0x10 }
  - { offsetInCU: 0x2166C, offset: 0x119168, size: 0x8, addend: 0x0, symName: '__ZNKSt3__110__function6__funcIZ28pushRecordedExecutableEventsP10PropertiesE3$_3NS_9allocatorIS4_EEFffEE7__cloneEPNS0_6__baseIS7_EE', symObjAddr: 0x30A0, symBinAddr: 0x10000F834, symSize: 0x10 }
  - { offsetInCU: 0x21687, offset: 0x119183, size: 0x8, addend: 0x0, symName: '__ZNSt3__110__function6__funcIZ28pushRecordedExecutableEventsP10PropertiesE3$_3NS_9allocatorIS4_EEFffEE7destroyEv', symObjAddr: 0x30B0, symBinAddr: 0x10000F844, symSize: 0x4 }
  - { offsetInCU: 0x216D8, offset: 0x1191D4, size: 0x8, addend: 0x0, symName: '__ZNSt3__110__function6__funcIZ28pushRecordedExecutableEventsP10PropertiesE3$_3NS_9allocatorIS4_EEFffEE18destroy_deallocateEv', symObjAddr: 0x30B4, symBinAddr: 0x10000F848, symSize: 0x4 }
  - { offsetInCU: 0x2170E, offset: 0x11920A, size: 0x8, addend: 0x0, symName: '__ZNSt3__110__function6__funcIZ28pushRecordedExecutableEventsP10PropertiesE3$_3NS_9allocatorIS4_EEFffEE18destroy_deallocateEv', symObjAddr: 0x30B4, symBinAddr: 0x10000F848, symSize: 0x4 }
  - { offsetInCU: 0x21731, offset: 0x11922D, size: 0x8, addend: 0x0, symName: '__ZNSt3__110__function6__funcIZ28pushRecordedExecutableEventsP10PropertiesE3$_3NS_9allocatorIS4_EEFffEE18destroy_deallocateEv', symObjAddr: 0x30B4, symBinAddr: 0x10000F848, symSize: 0x4 }
  - { offsetInCU: 0x2175D, offset: 0x119259, size: 0x8, addend: 0x0, symName: '__ZNSt3__110__function6__funcIZ28pushRecordedExecutableEventsP10PropertiesE3$_3NS_9allocatorIS4_EEFffEE18destroy_deallocateEv', symObjAddr: 0x30B4, symBinAddr: 0x10000F848, symSize: 0x4 }
  - { offsetInCU: 0x21783, offset: 0x11927F, size: 0x8, addend: 0x0, symName: '__ZNSt3__110__function6__funcIZ28pushRecordedExecutableEventsP10PropertiesE3$_3NS_9allocatorIS4_EEFffEE18destroy_deallocateEv', symObjAddr: 0x30B4, symBinAddr: 0x10000F848, symSize: 0x4 }
  - { offsetInCU: 0x217AC, offset: 0x1192A8, size: 0x8, addend: 0x0, symName: '__ZNSt3__110__function6__funcIZ28pushRecordedExecutableEventsP10PropertiesE3$_3NS_9allocatorIS4_EEFffEEclEOf', symObjAddr: 0x30B8, symBinAddr: 0x10000F84C, symSize: 0x8 }
  - { offsetInCU: 0x217DD, offset: 0x1192D9, size: 0x8, addend: 0x0, symName: '__ZNKSt3__110__function6__funcIZ28pushRecordedExecutableEventsP10PropertiesE3$_3NS_9allocatorIS4_EEFffEE6targetERKSt9type_info', symObjAddr: 0x30C0, symBinAddr: 0x10000F854, symSize: 0x60 }
  - { offsetInCU: 0x21862, offset: 0x11935E, size: 0x8, addend: 0x0, symName: '__ZNKSt3__110__function6__funcIZ28pushRecordedExecutableEventsP10PropertiesE3$_3NS_9allocatorIS4_EEFffEE11target_typeEv', symObjAddr: 0x3120, symBinAddr: 0x10000F8B4, symSize: 0xC }
  - { offsetInCU: 0x21887, offset: 0x119383, size: 0x8, addend: 0x0, symName: '__ZNSt3__110__function6__funcIZ28pushRecordedExecutableEventsP10PropertiesE3$_4NS_9allocatorIS4_EEFffEED1Ev', symObjAddr: 0x312C, symBinAddr: 0x10000F8C0, symSize: 0x4 }
  - { offsetInCU: 0x218B3, offset: 0x1193AF, size: 0x8, addend: 0x0, symName: '__ZNSt3__110__function6__funcIZ28pushRecordedExecutableEventsP10PropertiesE3$_4NS_9allocatorIS4_EEFffEED0Ev', symObjAddr: 0x3130, symBinAddr: 0x10000F8C4, symSize: 0x4 }
  - { offsetInCU: 0x21969, offset: 0x119465, size: 0x8, addend: 0x0, symName: '__ZNKSt3__110__function6__funcIZ28pushRecordedExecutableEventsP10PropertiesE3$_4NS_9allocatorIS4_EEFffEE7__cloneEv', symObjAddr: 0x3134, symBinAddr: 0x10000F8C8, symSize: 0x24 }
  - { offsetInCU: 0x21AB1, offset: 0x1195AD, size: 0x8, addend: 0x0, symName: '__ZNKSt3__110__function6__funcIZ28pushRecordedExecutableEventsP10PropertiesE3$_4NS_9allocatorIS4_EEFffEE7__cloneEPNS0_6__baseIS7_EE', symObjAddr: 0x3158, symBinAddr: 0x10000F8EC, symSize: 0x10 }
  - { offsetInCU: 0x21AE8, offset: 0x1195E4, size: 0x8, addend: 0x0, symName: '__ZNKSt3__110__function6__funcIZ28pushRecordedExecutableEventsP10PropertiesE3$_4NS_9allocatorIS4_EEFffEE7__cloneEPNS0_6__baseIS7_EE', symObjAddr: 0x3158, symBinAddr: 0x10000F8EC, symSize: 0x10 }
  - { offsetInCU: 0x21B04, offset: 0x119600, size: 0x8, addend: 0x0, symName: '__ZNKSt3__110__function6__funcIZ28pushRecordedExecutableEventsP10PropertiesE3$_4NS_9allocatorIS4_EEFffEE7__cloneEPNS0_6__baseIS7_EE', symObjAddr: 0x3158, symBinAddr: 0x10000F8EC, symSize: 0x10 }
  - { offsetInCU: 0x21B1F, offset: 0x11961B, size: 0x8, addend: 0x0, symName: '__ZNSt3__110__function6__funcIZ28pushRecordedExecutableEventsP10PropertiesE3$_4NS_9allocatorIS4_EEFffEE7destroyEv', symObjAddr: 0x3168, symBinAddr: 0x10000F8FC, symSize: 0x4 }
  - { offsetInCU: 0x21B70, offset: 0x11966C, size: 0x8, addend: 0x0, symName: '__ZNSt3__110__function6__funcIZ28pushRecordedExecutableEventsP10PropertiesE3$_4NS_9allocatorIS4_EEFffEE18destroy_deallocateEv', symObjAddr: 0x316C, symBinAddr: 0x10000F900, symSize: 0x4 }
  - { offsetInCU: 0x21BA6, offset: 0x1196A2, size: 0x8, addend: 0x0, symName: '__ZNSt3__110__function6__funcIZ28pushRecordedExecutableEventsP10PropertiesE3$_4NS_9allocatorIS4_EEFffEE18destroy_deallocateEv', symObjAddr: 0x316C, symBinAddr: 0x10000F900, symSize: 0x4 }
  - { offsetInCU: 0x21BC9, offset: 0x1196C5, size: 0x8, addend: 0x0, symName: '__ZNSt3__110__function6__funcIZ28pushRecordedExecutableEventsP10PropertiesE3$_4NS_9allocatorIS4_EEFffEE18destroy_deallocateEv', symObjAddr: 0x316C, symBinAddr: 0x10000F900, symSize: 0x4 }
  - { offsetInCU: 0x21BF5, offset: 0x1196F1, size: 0x8, addend: 0x0, symName: '__ZNSt3__110__function6__funcIZ28pushRecordedExecutableEventsP10PropertiesE3$_4NS_9allocatorIS4_EEFffEE18destroy_deallocateEv', symObjAddr: 0x316C, symBinAddr: 0x10000F900, symSize: 0x4 }
  - { offsetInCU: 0x21C1B, offset: 0x119717, size: 0x8, addend: 0x0, symName: '__ZNSt3__110__function6__funcIZ28pushRecordedExecutableEventsP10PropertiesE3$_4NS_9allocatorIS4_EEFffEE18destroy_deallocateEv', symObjAddr: 0x316C, symBinAddr: 0x10000F900, symSize: 0x4 }
  - { offsetInCU: 0x21C44, offset: 0x119740, size: 0x8, addend: 0x0, symName: '__ZNSt3__110__function6__funcIZ28pushRecordedExecutableEventsP10PropertiesE3$_4NS_9allocatorIS4_EEFffEEclEOf', symObjAddr: 0x3170, symBinAddr: 0x10000F904, symSize: 0x8 }
  - { offsetInCU: 0x21C75, offset: 0x119771, size: 0x8, addend: 0x0, symName: '__ZNKSt3__110__function6__funcIZ28pushRecordedExecutableEventsP10PropertiesE3$_4NS_9allocatorIS4_EEFffEE6targetERKSt9type_info', symObjAddr: 0x3178, symBinAddr: 0x10000F90C, symSize: 0x60 }
  - { offsetInCU: 0x21CFA, offset: 0x1197F6, size: 0x8, addend: 0x0, symName: '__ZNKSt3__110__function6__funcIZ28pushRecordedExecutableEventsP10PropertiesE3$_4NS_9allocatorIS4_EEFffEE11target_typeEv', symObjAddr: 0x31D8, symBinAddr: 0x10000F96C, symSize: 0xC }
  - { offsetInCU: 0x21D1F, offset: 0x11981B, size: 0x8, addend: 0x0, symName: '__ZNSt3__110__function6__funcIZ28pushRecordedExecutableEventsP10PropertiesE3$_5NS_9allocatorIS4_EEFffEED1Ev', symObjAddr: 0x31E4, symBinAddr: 0x10000F978, symSize: 0x4 }
  - { offsetInCU: 0x21D4B, offset: 0x119847, size: 0x8, addend: 0x0, symName: '__ZNSt3__110__function6__funcIZ28pushRecordedExecutableEventsP10PropertiesE3$_5NS_9allocatorIS4_EEFffEED0Ev', symObjAddr: 0x31E8, symBinAddr: 0x10000F97C, symSize: 0x4 }
  - { offsetInCU: 0x21E01, offset: 0x1198FD, size: 0x8, addend: 0x0, symName: '__ZNKSt3__110__function6__funcIZ28pushRecordedExecutableEventsP10PropertiesE3$_5NS_9allocatorIS4_EEFffEE7__cloneEv', symObjAddr: 0x31EC, symBinAddr: 0x10000F980, symSize: 0x24 }
  - { offsetInCU: 0x21F49, offset: 0x119A45, size: 0x8, addend: 0x0, symName: '__ZNKSt3__110__function6__funcIZ28pushRecordedExecutableEventsP10PropertiesE3$_5NS_9allocatorIS4_EEFffEE7__cloneEPNS0_6__baseIS7_EE', symObjAddr: 0x3210, symBinAddr: 0x10000F9A4, symSize: 0x10 }
  - { offsetInCU: 0x21F80, offset: 0x119A7C, size: 0x8, addend: 0x0, symName: '__ZNKSt3__110__function6__funcIZ28pushRecordedExecutableEventsP10PropertiesE3$_5NS_9allocatorIS4_EEFffEE7__cloneEPNS0_6__baseIS7_EE', symObjAddr: 0x3210, symBinAddr: 0x10000F9A4, symSize: 0x10 }
  - { offsetInCU: 0x21F9C, offset: 0x119A98, size: 0x8, addend: 0x0, symName: '__ZNKSt3__110__function6__funcIZ28pushRecordedExecutableEventsP10PropertiesE3$_5NS_9allocatorIS4_EEFffEE7__cloneEPNS0_6__baseIS7_EE', symObjAddr: 0x3210, symBinAddr: 0x10000F9A4, symSize: 0x10 }
  - { offsetInCU: 0x21FB7, offset: 0x119AB3, size: 0x8, addend: 0x0, symName: '__ZNSt3__110__function6__funcIZ28pushRecordedExecutableEventsP10PropertiesE3$_5NS_9allocatorIS4_EEFffEE7destroyEv', symObjAddr: 0x3220, symBinAddr: 0x10000F9B4, symSize: 0x4 }
  - { offsetInCU: 0x22008, offset: 0x119B04, size: 0x8, addend: 0x0, symName: '__ZNSt3__110__function6__funcIZ28pushRecordedExecutableEventsP10PropertiesE3$_5NS_9allocatorIS4_EEFffEE18destroy_deallocateEv', symObjAddr: 0x3224, symBinAddr: 0x10000F9B8, symSize: 0x4 }
  - { offsetInCU: 0x2203E, offset: 0x119B3A, size: 0x8, addend: 0x0, symName: '__ZNSt3__110__function6__funcIZ28pushRecordedExecutableEventsP10PropertiesE3$_5NS_9allocatorIS4_EEFffEE18destroy_deallocateEv', symObjAddr: 0x3224, symBinAddr: 0x10000F9B8, symSize: 0x4 }
  - { offsetInCU: 0x22061, offset: 0x119B5D, size: 0x8, addend: 0x0, symName: '__ZNSt3__110__function6__funcIZ28pushRecordedExecutableEventsP10PropertiesE3$_5NS_9allocatorIS4_EEFffEE18destroy_deallocateEv', symObjAddr: 0x3224, symBinAddr: 0x10000F9B8, symSize: 0x4 }
  - { offsetInCU: 0x2208D, offset: 0x119B89, size: 0x8, addend: 0x0, symName: '__ZNSt3__110__function6__funcIZ28pushRecordedExecutableEventsP10PropertiesE3$_5NS_9allocatorIS4_EEFffEE18destroy_deallocateEv', symObjAddr: 0x3224, symBinAddr: 0x10000F9B8, symSize: 0x4 }
  - { offsetInCU: 0x220B3, offset: 0x119BAF, size: 0x8, addend: 0x0, symName: '__ZNSt3__110__function6__funcIZ28pushRecordedExecutableEventsP10PropertiesE3$_5NS_9allocatorIS4_EEFffEE18destroy_deallocateEv', symObjAddr: 0x3224, symBinAddr: 0x10000F9B8, symSize: 0x4 }
  - { offsetInCU: 0x220DC, offset: 0x119BD8, size: 0x8, addend: 0x0, symName: '__ZNSt3__110__function6__funcIZ28pushRecordedExecutableEventsP10PropertiesE3$_5NS_9allocatorIS4_EEFffEEclEOf', symObjAddr: 0x3228, symBinAddr: 0x10000F9BC, symSize: 0x8 }
  - { offsetInCU: 0x2210D, offset: 0x119C09, size: 0x8, addend: 0x0, symName: '__ZNKSt3__110__function6__funcIZ28pushRecordedExecutableEventsP10PropertiesE3$_5NS_9allocatorIS4_EEFffEE6targetERKSt9type_info', symObjAddr: 0x3230, symBinAddr: 0x10000F9C4, symSize: 0x60 }
  - { offsetInCU: 0x22192, offset: 0x119C8E, size: 0x8, addend: 0x0, symName: '__ZNKSt3__110__function6__funcIZ28pushRecordedExecutableEventsP10PropertiesE3$_5NS_9allocatorIS4_EEFffEE11target_typeEv', symObjAddr: 0x3290, symBinAddr: 0x10000FA24, symSize: 0xC }
  - { offsetInCU: 0x221B7, offset: 0x119CB3, size: 0x8, addend: 0x0, symName: '__ZNSt3__110__function6__funcIZ28pushRecordedExecutableEventsP10PropertiesE3$_6NS_9allocatorIS4_EEFffEED1Ev', symObjAddr: 0x329C, symBinAddr: 0x10000FA30, symSize: 0x4 }
  - { offsetInCU: 0x221E3, offset: 0x119CDF, size: 0x8, addend: 0x0, symName: '__ZNSt3__110__function6__funcIZ28pushRecordedExecutableEventsP10PropertiesE3$_6NS_9allocatorIS4_EEFffEED0Ev', symObjAddr: 0x32A0, symBinAddr: 0x10000FA34, symSize: 0x4 }
  - { offsetInCU: 0x22299, offset: 0x119D95, size: 0x8, addend: 0x0, symName: '__ZNKSt3__110__function6__funcIZ28pushRecordedExecutableEventsP10PropertiesE3$_6NS_9allocatorIS4_EEFffEE7__cloneEv', symObjAddr: 0x32A4, symBinAddr: 0x10000FA38, symSize: 0x24 }
  - { offsetInCU: 0x223E1, offset: 0x119EDD, size: 0x8, addend: 0x0, symName: '__ZNKSt3__110__function6__funcIZ28pushRecordedExecutableEventsP10PropertiesE3$_6NS_9allocatorIS4_EEFffEE7__cloneEPNS0_6__baseIS7_EE', symObjAddr: 0x32C8, symBinAddr: 0x10000FA5C, symSize: 0x10 }
  - { offsetInCU: 0x22418, offset: 0x119F14, size: 0x8, addend: 0x0, symName: '__ZNKSt3__110__function6__funcIZ28pushRecordedExecutableEventsP10PropertiesE3$_6NS_9allocatorIS4_EEFffEE7__cloneEPNS0_6__baseIS7_EE', symObjAddr: 0x32C8, symBinAddr: 0x10000FA5C, symSize: 0x10 }
  - { offsetInCU: 0x22434, offset: 0x119F30, size: 0x8, addend: 0x0, symName: '__ZNKSt3__110__function6__funcIZ28pushRecordedExecutableEventsP10PropertiesE3$_6NS_9allocatorIS4_EEFffEE7__cloneEPNS0_6__baseIS7_EE', symObjAddr: 0x32C8, symBinAddr: 0x10000FA5C, symSize: 0x10 }
  - { offsetInCU: 0x2244F, offset: 0x119F4B, size: 0x8, addend: 0x0, symName: '__ZNSt3__110__function6__funcIZ28pushRecordedExecutableEventsP10PropertiesE3$_6NS_9allocatorIS4_EEFffEE7destroyEv', symObjAddr: 0x32D8, symBinAddr: 0x10000FA6C, symSize: 0x4 }
  - { offsetInCU: 0x224A0, offset: 0x119F9C, size: 0x8, addend: 0x0, symName: '__ZNSt3__110__function6__funcIZ28pushRecordedExecutableEventsP10PropertiesE3$_6NS_9allocatorIS4_EEFffEE18destroy_deallocateEv', symObjAddr: 0x32DC, symBinAddr: 0x10000FA70, symSize: 0x4 }
  - { offsetInCU: 0x224D6, offset: 0x119FD2, size: 0x8, addend: 0x0, symName: '__ZNSt3__110__function6__funcIZ28pushRecordedExecutableEventsP10PropertiesE3$_6NS_9allocatorIS4_EEFffEE18destroy_deallocateEv', symObjAddr: 0x32DC, symBinAddr: 0x10000FA70, symSize: 0x4 }
  - { offsetInCU: 0x224F9, offset: 0x119FF5, size: 0x8, addend: 0x0, symName: '__ZNSt3__110__function6__funcIZ28pushRecordedExecutableEventsP10PropertiesE3$_6NS_9allocatorIS4_EEFffEE18destroy_deallocateEv', symObjAddr: 0x32DC, symBinAddr: 0x10000FA70, symSize: 0x4 }
  - { offsetInCU: 0x22525, offset: 0x11A021, size: 0x8, addend: 0x0, symName: '__ZNSt3__110__function6__funcIZ28pushRecordedExecutableEventsP10PropertiesE3$_6NS_9allocatorIS4_EEFffEE18destroy_deallocateEv', symObjAddr: 0x32DC, symBinAddr: 0x10000FA70, symSize: 0x4 }
  - { offsetInCU: 0x2254B, offset: 0x11A047, size: 0x8, addend: 0x0, symName: '__ZNSt3__110__function6__funcIZ28pushRecordedExecutableEventsP10PropertiesE3$_6NS_9allocatorIS4_EEFffEE18destroy_deallocateEv', symObjAddr: 0x32DC, symBinAddr: 0x10000FA70, symSize: 0x4 }
  - { offsetInCU: 0x22574, offset: 0x11A070, size: 0x8, addend: 0x0, symName: '__ZNSt3__110__function6__funcIZ28pushRecordedExecutableEventsP10PropertiesE3$_6NS_9allocatorIS4_EEFffEEclEOf', symObjAddr: 0x32E0, symBinAddr: 0x10000FA74, symSize: 0x8 }
  - { offsetInCU: 0x225A5, offset: 0x11A0A1, size: 0x8, addend: 0x0, symName: '__ZNKSt3__110__function6__funcIZ28pushRecordedExecutableEventsP10PropertiesE3$_6NS_9allocatorIS4_EEFffEE6targetERKSt9type_info', symObjAddr: 0x32E8, symBinAddr: 0x10000FA7C, symSize: 0x60 }
  - { offsetInCU: 0x2262A, offset: 0x11A126, size: 0x8, addend: 0x0, symName: '__ZNKSt3__110__function6__funcIZ28pushRecordedExecutableEventsP10PropertiesE3$_6NS_9allocatorIS4_EEFffEE11target_typeEv', symObjAddr: 0x3348, symBinAddr: 0x10000FADC, symSize: 0xC }
  - { offsetInCU: 0x2264F, offset: 0x11A14B, size: 0x8, addend: 0x0, symName: '__ZNSt3__110__function6__funcIZ28pushRecordedExecutableEventsP10PropertiesE3$_7NS_9allocatorIS4_EEFffEED1Ev', symObjAddr: 0x3354, symBinAddr: 0x10000FAE8, symSize: 0x4 }
  - { offsetInCU: 0x2267B, offset: 0x11A177, size: 0x8, addend: 0x0, symName: '__ZNSt3__110__function6__funcIZ28pushRecordedExecutableEventsP10PropertiesE3$_7NS_9allocatorIS4_EEFffEED0Ev', symObjAddr: 0x3358, symBinAddr: 0x10000FAEC, symSize: 0x4 }
  - { offsetInCU: 0x22731, offset: 0x11A22D, size: 0x8, addend: 0x0, symName: '__ZNKSt3__110__function6__funcIZ28pushRecordedExecutableEventsP10PropertiesE3$_7NS_9allocatorIS4_EEFffEE7__cloneEv', symObjAddr: 0x335C, symBinAddr: 0x10000FAF0, symSize: 0x24 }
  - { offsetInCU: 0x22879, offset: 0x11A375, size: 0x8, addend: 0x0, symName: '__ZNKSt3__110__function6__funcIZ28pushRecordedExecutableEventsP10PropertiesE3$_7NS_9allocatorIS4_EEFffEE7__cloneEPNS0_6__baseIS7_EE', symObjAddr: 0x3380, symBinAddr: 0x10000FB14, symSize: 0x10 }
  - { offsetInCU: 0x228B0, offset: 0x11A3AC, size: 0x8, addend: 0x0, symName: '__ZNKSt3__110__function6__funcIZ28pushRecordedExecutableEventsP10PropertiesE3$_7NS_9allocatorIS4_EEFffEE7__cloneEPNS0_6__baseIS7_EE', symObjAddr: 0x3380, symBinAddr: 0x10000FB14, symSize: 0x10 }
  - { offsetInCU: 0x228CC, offset: 0x11A3C8, size: 0x8, addend: 0x0, symName: '__ZNKSt3__110__function6__funcIZ28pushRecordedExecutableEventsP10PropertiesE3$_7NS_9allocatorIS4_EEFffEE7__cloneEPNS0_6__baseIS7_EE', symObjAddr: 0x3380, symBinAddr: 0x10000FB14, symSize: 0x10 }
  - { offsetInCU: 0x228E7, offset: 0x11A3E3, size: 0x8, addend: 0x0, symName: '__ZNSt3__110__function6__funcIZ28pushRecordedExecutableEventsP10PropertiesE3$_7NS_9allocatorIS4_EEFffEE7destroyEv', symObjAddr: 0x3390, symBinAddr: 0x10000FB24, symSize: 0x4 }
  - { offsetInCU: 0x22938, offset: 0x11A434, size: 0x8, addend: 0x0, symName: '__ZNSt3__110__function6__funcIZ28pushRecordedExecutableEventsP10PropertiesE3$_7NS_9allocatorIS4_EEFffEE18destroy_deallocateEv', symObjAddr: 0x3394, symBinAddr: 0x10000FB28, symSize: 0x4 }
  - { offsetInCU: 0x2296E, offset: 0x11A46A, size: 0x8, addend: 0x0, symName: '__ZNSt3__110__function6__funcIZ28pushRecordedExecutableEventsP10PropertiesE3$_7NS_9allocatorIS4_EEFffEE18destroy_deallocateEv', symObjAddr: 0x3394, symBinAddr: 0x10000FB28, symSize: 0x4 }
  - { offsetInCU: 0x22991, offset: 0x11A48D, size: 0x8, addend: 0x0, symName: '__ZNSt3__110__function6__funcIZ28pushRecordedExecutableEventsP10PropertiesE3$_7NS_9allocatorIS4_EEFffEE18destroy_deallocateEv', symObjAddr: 0x3394, symBinAddr: 0x10000FB28, symSize: 0x4 }
  - { offsetInCU: 0x229BD, offset: 0x11A4B9, size: 0x8, addend: 0x0, symName: '__ZNSt3__110__function6__funcIZ28pushRecordedExecutableEventsP10PropertiesE3$_7NS_9allocatorIS4_EEFffEE18destroy_deallocateEv', symObjAddr: 0x3394, symBinAddr: 0x10000FB28, symSize: 0x4 }
  - { offsetInCU: 0x229E3, offset: 0x11A4DF, size: 0x8, addend: 0x0, symName: '__ZNSt3__110__function6__funcIZ28pushRecordedExecutableEventsP10PropertiesE3$_7NS_9allocatorIS4_EEFffEE18destroy_deallocateEv', symObjAddr: 0x3394, symBinAddr: 0x10000FB28, symSize: 0x4 }
  - { offsetInCU: 0x22A0C, offset: 0x11A508, size: 0x8, addend: 0x0, symName: '__ZNSt3__110__function6__funcIZ28pushRecordedExecutableEventsP10PropertiesE3$_7NS_9allocatorIS4_EEFffEEclEOf', symObjAddr: 0x3398, symBinAddr: 0x10000FB2C, symSize: 0x8 }
  - { offsetInCU: 0x22A3D, offset: 0x11A539, size: 0x8, addend: 0x0, symName: '__ZNKSt3__110__function6__funcIZ28pushRecordedExecutableEventsP10PropertiesE3$_7NS_9allocatorIS4_EEFffEE6targetERKSt9type_info', symObjAddr: 0x33A0, symBinAddr: 0x10000FB34, symSize: 0x60 }
  - { offsetInCU: 0x22AC2, offset: 0x11A5BE, size: 0x8, addend: 0x0, symName: '__ZNKSt3__110__function6__funcIZ28pushRecordedExecutableEventsP10PropertiesE3$_7NS_9allocatorIS4_EEFffEE11target_typeEv', symObjAddr: 0x3400, symBinAddr: 0x10000FB94, symSize: 0xC }
  - { offsetInCU: 0x22AE7, offset: 0x11A5E3, size: 0x8, addend: 0x0, symName: '__ZNSt3__110__function6__funcIZ28pushRecordedExecutableEventsP10PropertiesE3$_8NS_9allocatorIS4_EEFffEED1Ev', symObjAddr: 0x340C, symBinAddr: 0x10000FBA0, symSize: 0x4 }
  - { offsetInCU: 0x22B13, offset: 0x11A60F, size: 0x8, addend: 0x0, symName: '__ZNSt3__110__function6__funcIZ28pushRecordedExecutableEventsP10PropertiesE3$_8NS_9allocatorIS4_EEFffEED0Ev', symObjAddr: 0x3410, symBinAddr: 0x10000FBA4, symSize: 0x4 }
  - { offsetInCU: 0x22BC9, offset: 0x11A6C5, size: 0x8, addend: 0x0, symName: '__ZNKSt3__110__function6__funcIZ28pushRecordedExecutableEventsP10PropertiesE3$_8NS_9allocatorIS4_EEFffEE7__cloneEv', symObjAddr: 0x3414, symBinAddr: 0x10000FBA8, symSize: 0x24 }
  - { offsetInCU: 0x22D11, offset: 0x11A80D, size: 0x8, addend: 0x0, symName: '__ZNKSt3__110__function6__funcIZ28pushRecordedExecutableEventsP10PropertiesE3$_8NS_9allocatorIS4_EEFffEE7__cloneEPNS0_6__baseIS7_EE', symObjAddr: 0x3438, symBinAddr: 0x10000FBCC, symSize: 0x10 }
  - { offsetInCU: 0x22D48, offset: 0x11A844, size: 0x8, addend: 0x0, symName: '__ZNKSt3__110__function6__funcIZ28pushRecordedExecutableEventsP10PropertiesE3$_8NS_9allocatorIS4_EEFffEE7__cloneEPNS0_6__baseIS7_EE', symObjAddr: 0x3438, symBinAddr: 0x10000FBCC, symSize: 0x10 }
  - { offsetInCU: 0x22D64, offset: 0x11A860, size: 0x8, addend: 0x0, symName: '__ZNKSt3__110__function6__funcIZ28pushRecordedExecutableEventsP10PropertiesE3$_8NS_9allocatorIS4_EEFffEE7__cloneEPNS0_6__baseIS7_EE', symObjAddr: 0x3438, symBinAddr: 0x10000FBCC, symSize: 0x10 }
  - { offsetInCU: 0x22D7F, offset: 0x11A87B, size: 0x8, addend: 0x0, symName: '__ZNSt3__110__function6__funcIZ28pushRecordedExecutableEventsP10PropertiesE3$_8NS_9allocatorIS4_EEFffEE7destroyEv', symObjAddr: 0x3448, symBinAddr: 0x10000FBDC, symSize: 0x4 }
  - { offsetInCU: 0x22DD0, offset: 0x11A8CC, size: 0x8, addend: 0x0, symName: '__ZNSt3__110__function6__funcIZ28pushRecordedExecutableEventsP10PropertiesE3$_8NS_9allocatorIS4_EEFffEE18destroy_deallocateEv', symObjAddr: 0x344C, symBinAddr: 0x10000FBE0, symSize: 0x4 }
  - { offsetInCU: 0x22E06, offset: 0x11A902, size: 0x8, addend: 0x0, symName: '__ZNSt3__110__function6__funcIZ28pushRecordedExecutableEventsP10PropertiesE3$_8NS_9allocatorIS4_EEFffEE18destroy_deallocateEv', symObjAddr: 0x344C, symBinAddr: 0x10000FBE0, symSize: 0x4 }
  - { offsetInCU: 0x22E29, offset: 0x11A925, size: 0x8, addend: 0x0, symName: '__ZNSt3__110__function6__funcIZ28pushRecordedExecutableEventsP10PropertiesE3$_8NS_9allocatorIS4_EEFffEE18destroy_deallocateEv', symObjAddr: 0x344C, symBinAddr: 0x10000FBE0, symSize: 0x4 }
  - { offsetInCU: 0x22E55, offset: 0x11A951, size: 0x8, addend: 0x0, symName: '__ZNSt3__110__function6__funcIZ28pushRecordedExecutableEventsP10PropertiesE3$_8NS_9allocatorIS4_EEFffEE18destroy_deallocateEv', symObjAddr: 0x344C, symBinAddr: 0x10000FBE0, symSize: 0x4 }
  - { offsetInCU: 0x22E7B, offset: 0x11A977, size: 0x8, addend: 0x0, symName: '__ZNSt3__110__function6__funcIZ28pushRecordedExecutableEventsP10PropertiesE3$_8NS_9allocatorIS4_EEFffEE18destroy_deallocateEv', symObjAddr: 0x344C, symBinAddr: 0x10000FBE0, symSize: 0x4 }
  - { offsetInCU: 0x22EA4, offset: 0x11A9A0, size: 0x8, addend: 0x0, symName: '__ZNSt3__110__function6__funcIZ28pushRecordedExecutableEventsP10PropertiesE3$_8NS_9allocatorIS4_EEFffEEclEOf', symObjAddr: 0x3450, symBinAddr: 0x10000FBE4, symSize: 0x8 }
  - { offsetInCU: 0x22ED5, offset: 0x11A9D1, size: 0x8, addend: 0x0, symName: '__ZNKSt3__110__function6__funcIZ28pushRecordedExecutableEventsP10PropertiesE3$_8NS_9allocatorIS4_EEFffEE6targetERKSt9type_info', symObjAddr: 0x3458, symBinAddr: 0x10000FBEC, symSize: 0x60 }
  - { offsetInCU: 0x22F5A, offset: 0x11AA56, size: 0x8, addend: 0x0, symName: '__ZNKSt3__110__function6__funcIZ28pushRecordedExecutableEventsP10PropertiesE3$_8NS_9allocatorIS4_EEFffEE11target_typeEv', symObjAddr: 0x34B8, symBinAddr: 0x10000FC4C, symSize: 0xC }
  - { offsetInCU: 0x22F7F, offset: 0x11AA7B, size: 0x8, addend: 0x0, symName: '__ZNSt3__110__function6__funcIZ28pushRecordedExecutableEventsP10PropertiesE3$_9NS_9allocatorIS4_EEFffEED1Ev', symObjAddr: 0x34C4, symBinAddr: 0x10000FC58, symSize: 0x4 }
  - { offsetInCU: 0x22FAB, offset: 0x11AAA7, size: 0x8, addend: 0x0, symName: '__ZNSt3__110__function6__funcIZ28pushRecordedExecutableEventsP10PropertiesE3$_9NS_9allocatorIS4_EEFffEED0Ev', symObjAddr: 0x34C8, symBinAddr: 0x10000FC5C, symSize: 0x4 }
  - { offsetInCU: 0x23061, offset: 0x11AB5D, size: 0x8, addend: 0x0, symName: '__ZNKSt3__110__function6__funcIZ28pushRecordedExecutableEventsP10PropertiesE3$_9NS_9allocatorIS4_EEFffEE7__cloneEv', symObjAddr: 0x34CC, symBinAddr: 0x10000FC60, symSize: 0x24 }
  - { offsetInCU: 0x231A9, offset: 0x11ACA5, size: 0x8, addend: 0x0, symName: '__ZNKSt3__110__function6__funcIZ28pushRecordedExecutableEventsP10PropertiesE3$_9NS_9allocatorIS4_EEFffEE7__cloneEPNS0_6__baseIS7_EE', symObjAddr: 0x34F0, symBinAddr: 0x10000FC84, symSize: 0x10 }
  - { offsetInCU: 0x231E0, offset: 0x11ACDC, size: 0x8, addend: 0x0, symName: '__ZNKSt3__110__function6__funcIZ28pushRecordedExecutableEventsP10PropertiesE3$_9NS_9allocatorIS4_EEFffEE7__cloneEPNS0_6__baseIS7_EE', symObjAddr: 0x34F0, symBinAddr: 0x10000FC84, symSize: 0x10 }
  - { offsetInCU: 0x231FC, offset: 0x11ACF8, size: 0x8, addend: 0x0, symName: '__ZNKSt3__110__function6__funcIZ28pushRecordedExecutableEventsP10PropertiesE3$_9NS_9allocatorIS4_EEFffEE7__cloneEPNS0_6__baseIS7_EE', symObjAddr: 0x34F0, symBinAddr: 0x10000FC84, symSize: 0x10 }
  - { offsetInCU: 0x23217, offset: 0x11AD13, size: 0x8, addend: 0x0, symName: '__ZNSt3__110__function6__funcIZ28pushRecordedExecutableEventsP10PropertiesE3$_9NS_9allocatorIS4_EEFffEE7destroyEv', symObjAddr: 0x3500, symBinAddr: 0x10000FC94, symSize: 0x4 }
  - { offsetInCU: 0x23268, offset: 0x11AD64, size: 0x8, addend: 0x0, symName: '__ZNSt3__110__function6__funcIZ28pushRecordedExecutableEventsP10PropertiesE3$_9NS_9allocatorIS4_EEFffEE18destroy_deallocateEv', symObjAddr: 0x3504, symBinAddr: 0x10000FC98, symSize: 0x4 }
  - { offsetInCU: 0x2329E, offset: 0x11AD9A, size: 0x8, addend: 0x0, symName: '__ZNSt3__110__function6__funcIZ28pushRecordedExecutableEventsP10PropertiesE3$_9NS_9allocatorIS4_EEFffEE18destroy_deallocateEv', symObjAddr: 0x3504, symBinAddr: 0x10000FC98, symSize: 0x4 }
  - { offsetInCU: 0x232C1, offset: 0x11ADBD, size: 0x8, addend: 0x0, symName: '__ZNSt3__110__function6__funcIZ28pushRecordedExecutableEventsP10PropertiesE3$_9NS_9allocatorIS4_EEFffEE18destroy_deallocateEv', symObjAddr: 0x3504, symBinAddr: 0x10000FC98, symSize: 0x4 }
  - { offsetInCU: 0x232ED, offset: 0x11ADE9, size: 0x8, addend: 0x0, symName: '__ZNSt3__110__function6__funcIZ28pushRecordedExecutableEventsP10PropertiesE3$_9NS_9allocatorIS4_EEFffEE18destroy_deallocateEv', symObjAddr: 0x3504, symBinAddr: 0x10000FC98, symSize: 0x4 }
  - { offsetInCU: 0x23313, offset: 0x11AE0F, size: 0x8, addend: 0x0, symName: '__ZNSt3__110__function6__funcIZ28pushRecordedExecutableEventsP10PropertiesE3$_9NS_9allocatorIS4_EEFffEE18destroy_deallocateEv', symObjAddr: 0x3504, symBinAddr: 0x10000FC98, symSize: 0x4 }
  - { offsetInCU: 0x2333C, offset: 0x11AE38, size: 0x8, addend: 0x0, symName: '__ZNSt3__110__function6__funcIZ28pushRecordedExecutableEventsP10PropertiesE3$_9NS_9allocatorIS4_EEFffEEclEOf', symObjAddr: 0x3508, symBinAddr: 0x10000FC9C, symSize: 0x8 }
  - { offsetInCU: 0x2336D, offset: 0x11AE69, size: 0x8, addend: 0x0, symName: '__ZNKSt3__110__function6__funcIZ28pushRecordedExecutableEventsP10PropertiesE3$_9NS_9allocatorIS4_EEFffEE6targetERKSt9type_info', symObjAddr: 0x3510, symBinAddr: 0x10000FCA4, symSize: 0x60 }
  - { offsetInCU: 0x233F2, offset: 0x11AEEE, size: 0x8, addend: 0x0, symName: '__ZNKSt3__110__function6__funcIZ28pushRecordedExecutableEventsP10PropertiesE3$_9NS_9allocatorIS4_EEFffEE11target_typeEv', symObjAddr: 0x3570, symBinAddr: 0x10000FD04, symSize: 0xC }
  - { offsetInCU: 0xB32F, offset: 0x126C86, size: 0x8, addend: 0x0, symName: __ZSt28__throw_bad_array_new_lengthB8ue170006v, symObjAddr: 0x1348, symBinAddr: 0x100010B34, symSize: 0x28 }
  - { offsetInCU: 0xD917, offset: 0x12926E, size: 0x8, addend: 0x0, symName: __Z13updateManagerP11PlaybackMgrP10Properties, symObjAddr: 0x0, symBinAddr: 0x10000FD10, symSize: 0xA0 }
  - { offsetInCU: 0xD990, offset: 0x1292E7, size: 0x8, addend: 0x0, symName: __ZL7doEventP11PlaybackMgrP5EventP10Properties, symObjAddr: 0xA0, symBinAddr: 0x10000FDB0, symSize: 0x428 }
  - { offsetInCU: 0xE6F2, offset: 0x12A049, size: 0x8, addend: 0x0, symName: __ZN5EventaSEOS_, symObjAddr: 0xC7C, symBinAddr: 0x10001098C, symSize: 0x1A8 }
  - { offsetInCU: 0xEB0E, offset: 0x12A465, size: 0x8, addend: 0x0, symName: __Z9pushEventP11PlaybackMgr5Event, symObjAddr: 0x4C8, symBinAddr: 0x1000101D8, symSize: 0xC4 }
  - { offsetInCU: 0xEB69, offset: 0x12A4C0, size: 0x8, addend: 0x0, symName: __ZN5EventaSERKS_, symObjAddr: 0x58C, symBinAddr: 0x10001029C, symSize: 0x1AC }
  - { offsetInCU: 0xF86A, offset: 0x12B1C1, size: 0x8, addend: 0x0, symName: __Z21loadMouseDataFromFileRKNSt3__112basic_stringIcNS_11char_traitsIcEENS_9allocatorIcEEEE, symObjAddr: 0x738, symBinAddr: 0x100010448, symSize: 0x350 }
  - { offsetInCU: 0x10220, offset: 0x12BB77, size: 0x8, addend: 0x0, symName: __ZNSt3__114basic_ifstreamIcNS_11char_traitsIcEEEC1ERKNS_12basic_stringIcS2_NS_9allocatorIcEEEEj, symObjAddr: 0xA88, symBinAddr: 0x100010798, symSize: 0x118 }
  - { offsetInCU: 0x103A4, offset: 0x12BCFB, size: 0x8, addend: 0x0, symName: __ZNSt3__16vectorI16SavedProcessDataNS_9allocatorIS1_EEE8__appendEm, symObjAddr: 0x1370, symBinAddr: 0x100010B5C, symSize: 0x21C }
  - { offsetInCU: 0x10CDE, offset: 0x12C635, size: 0x8, addend: 0x0, symName: __ZNKSt3__16vectorI16SavedProcessDataNS_9allocatorIS1_EEE20__throw_length_errorB8ue170006Ev, symObjAddr: 0x158C, symBinAddr: 0x100010D78, symSize: 0x14 }
  - { offsetInCU: 0x10CE8, offset: 0x12C63F, size: 0x8, addend: 0x0, symName: __ZNSt3__16vectorI2v2NS_9allocatorIS1_EEE8__appendEm, symObjAddr: 0x15A0, symBinAddr: 0x100010D8C, symSize: 0x1A8 }
  - { offsetInCU: 0x11169, offset: 0x12CAC0, size: 0x8, addend: 0x0, symName: __ZNKSt3__16vectorI2v2NS_9allocatorIS1_EEE20__throw_length_errorB8ue170006Ev, symObjAddr: 0x1748, symBinAddr: 0x100010F34, symSize: 0x14 }
  - { offsetInCU: 0x11173, offset: 0x12CACA, size: 0x8, addend: 0x0, symName: __ZNSt3__16vectorIfNS_9allocatorIfEEE8__appendEm, symObjAddr: 0x175C, symBinAddr: 0x100010F48, symSize: 0x1A4 }
  - { offsetInCU: 0x115E1, offset: 0x12CF38, size: 0x8, addend: 0x0, symName: __ZNKSt3__16vectorIfNS_9allocatorIfEEE20__throw_length_errorB8ue170006Ev, symObjAddr: 0x1900, symBinAddr: 0x1000110EC, symSize: 0x14 }
  - { offsetInCU: 0x115EB, offset: 0x12CF42, size: 0x8, addend: 0x0, symName: __ZNSt3__114basic_ifstreamIcNS_11char_traitsIcEEED1Ev, symObjAddr: 0xBA0, symBinAddr: 0x1000108B0, symSize: 0x58 }
  - { offsetInCU: 0x11633, offset: 0x12CF8A, size: 0x8, addend: 0x0, symName: __ZNSt3__16vectorI16SavedProcessDataNS_9allocatorIS1_EEED1B8ue170006Ev, symObjAddr: 0xBF8, symBinAddr: 0x100010908, symSize: 0x84 }
  - { offsetInCU: 0x12509, offset: 0x12DE60, size: 0x8, addend: 0x0, symName: __ZNKSt3__16vectorI16SavedProcessDataNS_9allocatorIS1_EEE20__throw_length_errorB8ue170006Ev, symObjAddr: 0x158C, symBinAddr: 0x100010D78, symSize: 0x14 }
  - { offsetInCU: 0x12533, offset: 0x12DE8A, size: 0x8, addend: 0x0, symName: __ZNSt3__16vectorI2v2NS_9allocatorIS1_EEE8__appendEm, symObjAddr: 0x15A0, symBinAddr: 0x100010D8C, symSize: 0x1A8 }
  - { offsetInCU: 0x1284F, offset: 0x12E1A6, size: 0x8, addend: 0x0, symName: __ZNKSt3__16vectorI2v2NS_9allocatorIS1_EEE20__throw_length_errorB8ue170006Ev, symObjAddr: 0x1748, symBinAddr: 0x100010F34, symSize: 0x14 }
  - { offsetInCU: 0x12879, offset: 0x12E1D0, size: 0x8, addend: 0x0, symName: __ZNSt3__16vectorIfNS_9allocatorIfEEE8__appendEm, symObjAddr: 0x175C, symBinAddr: 0x100010F48, symSize: 0x1A4 }
  - { offsetInCU: 0x12B86, offset: 0x12E4DD, size: 0x8, addend: 0x0, symName: __ZNKSt3__16vectorIfNS_9allocatorIfEEE20__throw_length_errorB8ue170006Ev, symObjAddr: 0x1900, symBinAddr: 0x1000110EC, symSize: 0x14 }
  - { offsetInCU: 0xC221, offset: 0x13A731, size: 0x8, addend: 0x0, symName: __ZNSt3__17getlineB8ue170006IcNS_11char_traitsIcEENS_9allocatorIcEEEERNS_13basic_istreamIT_T0_EES9_RNS_12basic_stringIS6_S7_T1_EES6_, symObjAddr: 0x3AE8, symBinAddr: 0x100014290, symSize: 0x188 }
  - { offsetInCU: 0xE700, offset: 0x13CC10, size: 0x8, addend: 0x0, symName: __ZNSt3__16vectorI5EventNS_9allocatorIS1_EEE26__swap_out_circular_bufferERNS_14__split_bufferIS1_RS3_EE, symObjAddr: 0x3560, symBinAddr: 0x100014000, symSize: 0x19C }
  - { offsetInCU: 0x1297A, offset: 0x140E8A, size: 0x8, addend: 0x0, symName: __Z19processRecordedDataP10Properties, symObjAddr: 0x0, symBinAddr: 0x100011100, symSize: 0x2240 }
  - { offsetInCU: 0x1C50D, offset: 0x14AA1D, size: 0x8, addend: 0x0, symName: __Z31deleteFunctionContentAndReplaceRKNSt3__112basic_stringIcNS_11char_traitsIcEENS_9allocatorIcEEEE, symObjAddr: 0x2240, symBinAddr: 0x100013340, symSize: 0x1FC }
  - { offsetInCU: 0x1CC35, offset: 0x14B145, size: 0x8, addend: 0x0, symName: __ZNSt3__16vectorI5EventNS_9allocatorIS1_EEE21__push_back_slow_pathIRKS1_EEvOT_, symObjAddr: 0x30EC, symBinAddr: 0x100013E48, symSize: 0x1B8 }
  - { offsetInCU: 0x1D44C, offset: 0x14B95C, size: 0x8, addend: 0x0, symName: __ZN16SavedProcessDataC2ERKS_, symObjAddr: 0x2F38, symBinAddr: 0x100013CD0, symSize: 0x104 }
  - { offsetInCU: 0x1DBE3, offset: 0x14C0F3, size: 0x8, addend: 0x0, symName: __ZNSt3__16vectorI16SavedProcessDataNS_9allocatorIS1_EEE21__push_back_slow_pathIRKS1_EEvOT_, symObjAddr: 0x2D54, symBinAddr: 0x100013AEC, symSize: 0x1E4 }
  - { offsetInCU: 0x1E8A1, offset: 0x14CDB1, size: 0x8, addend: 0x0, symName: __ZNSt3__114basic_ofstreamIcNS_11char_traitsIcEEEC1ERKNS_12basic_stringIcS2_NS_9allocatorIcEEEEj, symObjAddr: 0x2554, symBinAddr: 0x10001353C, symSize: 0x114 }
  - { offsetInCU: 0x1EA4E, offset: 0x14CF5E, size: 0x8, addend: 0x0, symName: __Z22savePositionDataToFileRKNSt3__16vectorI16SavedProcessDataNS_9allocatorIS1_EEEERKNS_12basic_stringIcNS_11char_traitsIcEENS2_IcEEEE, symObjAddr: 0x2718, symBinAddr: 0x1000136A8, symSize: 0x27C }
  - { offsetInCU: 0x1EF45, offset: 0x14D455, size: 0x8, addend: 0x0, symName: __ZNSt3__16vectorI5EventNS_9allocatorIS1_EEE16__destroy_vectorclB8ue170006Ev, symObjAddr: 0x2C1C, symBinAddr: 0x1000139B4, symSize: 0x124 }
  - { offsetInCU: 0x1F446, offset: 0x14D956, size: 0x8, addend: 0x0, symName: __ZNSt3__114__split_bufferI16SavedProcessDataRNS_9allocatorIS1_EEED1Ev, symObjAddr: 0x3064, symBinAddr: 0x100013DD4, symSize: 0x74 }
  - { offsetInCU: 0x1F472, offset: 0x14D982, size: 0x8, addend: 0x0, symName: __ZNKSt3__16vectorIdNS_9allocatorIdEEE20__throw_length_errorB8ue170006Ev, symObjAddr: 0x2D40, symBinAddr: 0x100013AD8, symSize: 0x14 }
  - { offsetInCU: 0x1F49C, offset: 0x14D9AC, size: 0x8, addend: 0x0, symName: __ZNSt3__16vectorI16SavedProcessDataNS_9allocatorIS1_EEE21__push_back_slow_pathIRKS1_EEvOT_, symObjAddr: 0x2D54, symBinAddr: 0x100013AEC, symSize: 0x1E4 }
  - { offsetInCU: 0x1F4A6, offset: 0x14D9B6, size: 0x8, addend: 0x0, symName: __ZNSt3__114basic_ofstreamIcNS_11char_traitsIcEEED1Ev, symObjAddr: 0x2668, symBinAddr: 0x100013650, symSize: 0x58 }
  - { offsetInCU: 0x1F513, offset: 0x14DA23, size: 0x8, addend: 0x0, symName: __ZN16SavedProcessDataD1Ev, symObjAddr: 0x2994, symBinAddr: 0x100013924, symSize: 0x40 }
  - { offsetInCU: 0x1FA67, offset: 0x14DF77, size: 0x8, addend: 0x0, symName: __ZN16MouseProcessDataD1Ev, symObjAddr: 0x2A58, symBinAddr: 0x100013964, symSize: 0x50 }
  - { offsetInCU: 0x2072F, offset: 0x14EC3F, size: 0x8, addend: 0x0, symName: __ZNSt3__16vectorI5EventNS_9allocatorIS1_EEE21__push_back_slow_pathIRKS1_EEvOT_, symObjAddr: 0x30EC, symBinAddr: 0x100013E48, symSize: 0x1B8 }
  - { offsetInCU: 0x20739, offset: 0x14EC49, size: 0x8, addend: 0x0, symName: __ZNSt3__114__split_bufferI16SavedProcessDataRNS_9allocatorIS1_EEED1Ev, symObjAddr: 0x3064, symBinAddr: 0x100013DD4, symSize: 0x74 }
  - { offsetInCU: 0x21110, offset: 0x14F620, size: 0x8, addend: 0x0, symName: __ZNKSt3__16vectorI5EventNS_9allocatorIS1_EEE20__throw_length_errorB8ue170006Ev, symObjAddr: 0x36FC, symBinAddr: 0x10001419C, symSize: 0x14 }
  - { offsetInCU: 0x2113A, offset: 0x14F64A, size: 0x8, addend: 0x0, symName: __ZNSt3__114__split_bufferI5EventRNS_9allocatorIS1_EEED2Ev, symObjAddr: 0x3710, symBinAddr: 0x1000141B0, symSize: 0xE0 }
  - { offsetInCU: 0x21144, offset: 0x14F654, size: 0x8, addend: 0x0, symName: __ZNSt3__114__split_bufferI5EventRNS_9allocatorIS1_EEED2Ev, symObjAddr: 0x3710, symBinAddr: 0x1000141B0, symSize: 0xE0 }
  - { offsetInCU: 0xBE88, offset: 0x15C677, size: 0x8, addend: 0x0, symName: __Z16eventRecordStartP10Properties, symObjAddr: 0x0, symBinAddr: 0x100014418, symSize: 0x94 }
  - { offsetInCU: 0xC076, offset: 0x15C865, size: 0x8, addend: 0x0, symName: __ZNK5Timer14elapsedSecondsEv, symObjAddr: 0x94, symBinAddr: 0x1000144AC, symSize: 0x3C }
  - { offsetInCU: 0xC15B, offset: 0x15C94A, size: 0x8, addend: 0x0, symName: __Z15eventRecordStop6EventsP10Properties, symObjAddr: 0xD0, symBinAddr: 0x1000144E8, symSize: 0x48 }
  - { offsetInCU: 0xC671, offset: 0x15CE60, size: 0x8, addend: 0x0, symName: __Z10recordStepP10Properties, symObjAddr: 0x118, symBinAddr: 0x100014530, symSize: 0x328 }
  - { offsetInCU: 0xCD8D, offset: 0x15D57C, size: 0x8, addend: 0x0, symName: __Z12recordEventsP10Properties, symObjAddr: 0x440, symBinAddr: 0x100014858, symSize: 0xE4 }
  - { offsetInCU: 0xCD97, offset: 0x15D586, size: 0x8, addend: 0x0, symName: __ZNKSt3__16vectorI20WrittenRecordingDataNS_9allocatorIS1_EEE20__throw_length_errorB8ue170006Ev, symObjAddr: 0xCA4, symBinAddr: 0x100014DD4, symSize: 0x14 }
  - { offsetInCU: 0xD204, offset: 0x15D9F3, size: 0x8, addend: 0x0, symName: __Z12recordEventsP10Properties, symObjAddr: 0x440, symBinAddr: 0x100014858, symSize: 0xE4 }
  - { offsetInCU: 0xD77B, offset: 0x15DF6A, size: 0x8, addend: 0x0, symName: __Z10saveToFileRKNSt3__16vectorI20WrittenRecordingDataNS_9allocatorIS1_EEEERKNS_12basic_stringIcNS_11char_traitsIcEENS2_IcEEEE, symObjAddr: 0x524, symBinAddr: 0x10001493C, symSize: 0x1F0 }
  - { offsetInCU: 0xDECF, offset: 0x15E6BE, size: 0x8, addend: 0x0, symName: __Z12loadFromFileRKNSt3__112basic_stringIcNS_11char_traitsIcEENS_9allocatorIcEEEE, symObjAddr: 0x880, symBinAddr: 0x100014B2C, symSize: 0x1F8 }
  - { offsetInCU: 0xE4C8, offset: 0x15ECB7, size: 0x8, addend: 0x0, symName: __ZNSt3__16vectorI20WrittenRecordingDataNS_9allocatorIS1_EEE8__appendEm, symObjAddr: 0x1060, symBinAddr: 0x100014DE8, symSize: 0x1D4 }
  - { offsetInCU: 0xEA5E, offset: 0x15F24D, size: 0x8, addend: 0x0, symName: __ZN5TimerC2Ev, symObjAddr: 0xBE8, symBinAddr: 0x100014D24, symSize: 0x28 }
  - { offsetInCU: 0xEAA1, offset: 0x15F290, size: 0x8, addend: 0x0, symName: __ZN5TimerC1Ev, symObjAddr: 0xC10, symBinAddr: 0x100014D4C, symSize: 0x28 }
  - { offsetInCU: 0xEB95, offset: 0x15F384, size: 0x8, addend: 0x0, symName: __ZNK5Timer19elapsedMillisecondsEv, symObjAddr: 0xC38, symBinAddr: 0x100014D74, symSize: 0x3C }
  - { offsetInCU: 0xEC8D, offset: 0x15F47C, size: 0x8, addend: 0x0, symName: __ZN5Timer5resetEv, symObjAddr: 0xC74, symBinAddr: 0x100014DB0, symSize: 0x24 }
  - { offsetInCU: 0xF0D2, offset: 0x15F8C1, size: 0x8, addend: 0x0, symName: __ZNSt3__16vectorI20WrittenRecordingDataNS_9allocatorIS1_EEE8__appendEm, symObjAddr: 0x1060, symBinAddr: 0x100014DE8, symSize: 0x1D4 }
  - { offsetInCU: 0x9AC2, offset: 0x1694C3, size: 0x8, addend: 0x0, symName: __ZN16ScreenInteractor5clickEii9ClickType, symObjAddr: 0x0, symBinAddr: 0x100014FBC, symSize: 0x220 }
  - { offsetInCU: 0x9EA6, offset: 0x1698A7, size: 0x8, addend: 0x0, symName: __ZN16ScreenInteractor4dragEiiii, symObjAddr: 0x220, symBinAddr: 0x1000151DC, symSize: 0x44 }
  - { offsetInCU: 0x9F53, offset: 0x169954, size: 0x8, addend: 0x0, symName: __ZN16ScreenInteractor9clickDragEiiii, symObjAddr: 0x264, symBinAddr: 0x100015220, symSize: 0x1CC }
  - { offsetInCU: 0xA2BB, offset: 0x169CBC, size: 0x8, addend: 0x0, symName: __ZN14ScreenRecorder16getMousePositionERfS0_, symObjAddr: 0x430, symBinAddr: 0x1000153EC, symSize: 0x4C }
  - { offsetInCU: 0xA367, offset: 0x169D68, size: 0x8, addend: 0x0, symName: __Z28mouseClickMonitoringCallbackP17__CGEventTapProxy11CGEventTypeP9__CGEventPv, symObjAddr: 0x47C, symBinAddr: 0x100015438, symSize: 0x15C }
  - { offsetInCU: 0xA57D, offset: 0x169F7E, size: 0x8, addend: 0x0, symName: __ZN14ScreenRecorder18monitorMouseClicksEP10Properties, symObjAddr: 0x5D8, symBinAddr: 0x100015594, symSize: 0x2CC }
  - { offsetInCU: 0xACEA, offset: 0x16A6EB, size: 0x8, addend: 0x0, symName: __Z18mouseEventCallbackP17__CGEventTapProxy11CGEventTypeP9__CGEventPv, symObjAddr: 0x8A4, symBinAddr: 0x100015860, symSize: 0x168 }
  - { offsetInCU: 0xAECD, offset: 0x16A8CE, size: 0x8, addend: 0x0, symName: __ZN14ScreenRecorder21monitorMouseAndClicksEP10Properties, symObjAddr: 0xA0C, symBinAddr: 0x1000159C8, symSize: 0x1AC }
  - { offsetInCU: 0x3F, offset: 0x16B0DE, size: 0x8, addend: 0x0, symName: _frame_index, symObjAddr: 0x3FD50, symBinAddr: 0x100020020, symSize: 0x0 }
  - { offsetInCU: 0x5C, offset: 0x16B0FB, size: 0x8, addend: 0x0, symName: _props, symObjAddr: 0x3FD58, symBinAddr: 0x100020028, symSize: 0x0 }
  - { offsetInCU: 0x88FF, offset: 0x17399E, size: 0x8, addend: 0x0, symName: '__ZNSt3__114__thread_proxyB8ue170006INS_5tupleIJNS_10unique_ptrINS_15__thread_structENS_14default_deleteIS3_EEEEMNS_19__async_assoc_stateIvNS_12__async_funcIZ4mainE3$_0JEEEEEFvvEPSB_EEEEEPvSG_', symObjAddr: 0x884, symBinAddr: 0x100016368, symSize: 0x8C }
  - { offsetInCU: 0x9A22, offset: 0x174AC1, size: 0x8, addend: 0x0, symName: _main, symObjAddr: 0x4, symBinAddr: 0x100015B78, symSize: 0x2DC }
  - { offsetInCU: 0xC3B2, offset: 0x177451, size: 0x8, addend: 0x0, symName: __ZN10PropertiesD1Ev, symObjAddr: 0x0, symBinAddr: 0x100015B74, symSize: 0x4 }
  - { offsetInCU: 0xC3E0, offset: 0x17747F, size: 0x8, addend: 0x0, symName: __ZN10PropertiesD1Ev, symObjAddr: 0x0, symBinAddr: 0x100015B74, symSize: 0x4 }
  - { offsetInCU: 0xC3F3, offset: 0x177492, size: 0x8, addend: 0x0, symName: __ZN10PropertiesD2Ev, symObjAddr: 0x5B4, symBinAddr: 0x100016098, symSize: 0x184 }
  - { offsetInCU: 0xDC75, offset: 0x178D14, size: 0x8, addend: 0x0, symName: __ZNSt3__16vectorI20WrittenRecordingDataNS_9allocatorIS1_EEE18__assign_with_sizeB8ue170006IPS1_S6_EEvT_T0_l, symObjAddr: 0x958, symBinAddr: 0x10001643C, symSize: 0x198 }
  - { offsetInCU: 0xEA3A, offset: 0x179AD9, size: 0x8, addend: 0x0, symName: __ZN10PropertiesC2Ev, symObjAddr: 0x2E0, symBinAddr: 0x100015E54, symSize: 0x130 }
  - { offsetInCU: 0xF115, offset: 0x17A1B4, size: 0x8, addend: 0x0, symName: __ZN11PlaybackMgrD1Ev, symObjAddr: 0x494, symBinAddr: 0x100015F84, symSize: 0xD4 }
  - { offsetInCU: 0xF67A, offset: 0x17A719, size: 0x8, addend: 0x0, symName: __ZN18RecordingEventDataD1Ev, symObjAddr: 0x568, symBinAddr: 0x100016058, symSize: 0x40 }
  - { offsetInCU: 0xFFF4, offset: 0x17B093, size: 0x8, addend: 0x0, symName: '__ZNSt3__119__async_assoc_stateIvNS_12__async_funcIZ4mainE3$_0JEEEED1Ev', symObjAddr: 0x738, symBinAddr: 0x10001621C, symSize: 0x4C }
  - { offsetInCU: 0x10071, offset: 0x17B110, size: 0x8, addend: 0x0, symName: '__ZNSt3__119__async_assoc_stateIvNS_12__async_funcIZ4mainE3$_0JEEEED0Ev', symObjAddr: 0x784, symBinAddr: 0x100016268, symSize: 0x50 }
  - { offsetInCU: 0x100F6, offset: 0x17B195, size: 0x8, addend: 0x0, symName: '__ZNSt3__119__async_assoc_stateIvNS_12__async_funcIZ4mainE3$_0JEEEE16__on_zero_sharedEv', symObjAddr: 0x7D4, symBinAddr: 0x1000162B8, symSize: 0x28 }
  - { offsetInCU: 0x10182, offset: 0x17B221, size: 0x8, addend: 0x0, symName: '__ZNSt3__119__async_assoc_stateIvNS_12__async_funcIZ4mainE3$_0JEEEE9__executeEv', symObjAddr: 0x7FC, symBinAddr: 0x1000162E0, symSize: 0x88 }
  - { offsetInCU: 0x103E0, offset: 0x17B47F, size: 0x8, addend: 0x0, symName: '__ZNSt3__110unique_ptrINS_5tupleIJNS0_INS_15__thread_structENS_14default_deleteIS2_EEEEMNS_19__async_assoc_stateIvNS_12__async_funcIZ4mainE3$_0JEEEEEFvvEPSA_EEENS3_ISE_EEED1B8ue170006Ev', symObjAddr: 0x910, symBinAddr: 0x1000163F4, symSize: 0x48 }
  - { offsetInCU: 0x26, offset: 0x17B8B3, size: 0x8, addend: 0x0, symName: __Z6rotate2v2f, symObjAddr: 0x0, symBinAddr: 0x100016610, symSize: 0x3C }
  - { offsetInCU: 0x192, offset: 0x17BA1F, size: 0x8, addend: 0x0, symName: __Z6rotate2v2f, symObjAddr: 0x0, symBinAddr: 0x100016610, symSize: 0x3C }
  - { offsetInCU: 0x1E3, offset: 0x17BA70, size: 0x8, addend: 0x0, symName: __Z3dot2v2S_, symObjAddr: 0x3C, symBinAddr: 0x10001664C, symSize: 0xC }
  - { offsetInCU: 0x20A, offset: 0x17BA97, size: 0x8, addend: 0x0, symName: __Z17leftPerpendicular2v2, symObjAddr: 0x48, symBinAddr: 0x100016658, symSize: 0x10 }
  - { offsetInCU: 0x238, offset: 0x17BAC5, size: 0x8, addend: 0x0, symName: __Z18rightPerpendicular2v2, symObjAddr: 0x58, symBinAddr: 0x100016668, symSize: 0x10 }
  - { offsetInCU: 0x256, offset: 0x17BAE3, size: 0x8, addend: 0x0, symName: __Z4signf, symObjAddr: 0x68, symBinAddr: 0x100016678, symSize: 0x1C }
  - { offsetInCU: 0x284, offset: 0x17BB11, size: 0x8, addend: 0x0, symName: __Z6length2v2, symObjAddr: 0x84, symBinAddr: 0x100016694, symSize: 0x10 }
  - { offsetInCU: 0x2A2, offset: 0x17BB2F, size: 0x8, addend: 0x0, symName: __Z8lengthSq2v2, symObjAddr: 0x94, symBinAddr: 0x1000166A4, symSize: 0xC }
  - { offsetInCU: 0x2D0, offset: 0x17BB5D, size: 0x8, addend: 0x0, symName: __Z8degToRadf, symObjAddr: 0xA0, symBinAddr: 0x1000166B0, symSize: 0x24 }
  - { offsetInCU: 0x2FE, offset: 0x17BB8B, size: 0x8, addend: 0x0, symName: __Z8radToDegf, symObjAddr: 0xC4, symBinAddr: 0x1000166D4, symSize: 0x24 }
  - { offsetInCU: 0x427, offset: 0x17BCB4, size: 0x8, addend: 0x0, symName: __Z7solveIKP2v2ffS_, symObjAddr: 0xE8, symBinAddr: 0x1000166F8, symSize: 0x98 }
  - { offsetInCU: 0x4D7, offset: 0x17BD64, size: 0x8, addend: 0x0, symName: __Z7solveIKP2v2ffS_, symObjAddr: 0xE8, symBinAddr: 0x1000166F8, symSize: 0x98 }
  - { offsetInCU: 0x5CE, offset: 0x17BE5B, size: 0x8, addend: 0x0, symName: __Z9transform6mat2x22v2, symObjAddr: 0x180, symBinAddr: 0x100016790, symSize: 0x14 }
  - { offsetInCU: 0x65F, offset: 0x17BEEC, size: 0x8, addend: 0x0, symName: __Z12angleBetween2v2S_, symObjAddr: 0x194, symBinAddr: 0x1000167A4, symSize: 0x90 }
  - { offsetInCU: 0x7FA, offset: 0x17C087, size: 0x8, addend: 0x0, symName: __Z17leastAngularErrorff, symObjAddr: 0x224, symBinAddr: 0x100016834, symSize: 0x70 }
  - { offsetInCU: 0xA028, offset: 0x1861D4, size: 0x8, addend: 0x0, symName: __ZNSt3__1rsB8ue170006IcNS_11char_traitsIcEENS_9allocatorIcEEEERNS_13basic_istreamIT_T0_EES9_RNS_12basic_stringIS6_S7_T1_EE, symObjAddr: 0x1040, symBinAddr: 0x1000178E4, symSize: 0x228 }
  - { offsetInCU: 0xAFB3, offset: 0x18715F, size: 0x8, addend: 0x0, symName: '__ZNSt3__114__thread_proxyB8ue170006INS_5tupleIJNS_10unique_ptrINS_15__thread_structENS_14default_deleteIS3_EEEEZ15initApplicationP10PropertiesE3$_0EEEEEPvSB_', symObjAddr: 0x17AC, symBinAddr: 0x100017C88, symSize: 0x78 }
  - { offsetInCU: 0xBD3A, offset: 0x187EE6, size: 0x8, addend: 0x0, symName: __Z15initApplicationP10Properties, symObjAddr: 0xB4, symBinAddr: 0x100016958, symSize: 0xAD4 }
  - { offsetInCU: 0x1158D, offset: 0x18D739, size: 0x8, addend: 0x0, symName: __Z10resetTimerP10Properties, symObjAddr: 0x0, symBinAddr: 0x1000168A4, symSize: 0xB4 }
  - { offsetInCU: 0x12BA8, offset: 0x18ED54, size: 0x8, addend: 0x0, symName: '__ZNSt3__114__thread_proxyB8ue170006INS_5tupleIJNS_10unique_ptrINS_15__thread_structENS_14default_deleteIS3_EEEEZ15initApplicationP10PropertiesE3$_0EEEEEPvSB_', symObjAddr: 0x17AC, symBinAddr: 0x100017C88, symSize: 0x78 }
  - { offsetInCU: 0x12FE4, offset: 0x18F190, size: 0x8, addend: 0x0, symName: __Z6updateP10Properties, symObjAddr: 0xB88, symBinAddr: 0x10001742C, symSize: 0x310 }
  - { offsetInCU: 0x134EF, offset: 0x18F69B, size: 0x8, addend: 0x0, symName: __Z18isEscapeKeyPressedv, symObjAddr: 0xE98, symBinAddr: 0x10001773C, symSize: 0x54 }
  - { offsetInCU: 0x13588, offset: 0x18F734, size: 0x8, addend: 0x0, symName: __ZNKSt3__16vectorI6EventsNS_9allocatorIS1_EEE20__throw_length_errorB8ue170006Ev, symObjAddr: 0x186C, symBinAddr: 0x100017D48, symSize: 0x14 }
  - { offsetInCU: 0x135BC, offset: 0x18F768, size: 0x8, addend: 0x0, symName: __Z18isEscapeKeyPressedv, symObjAddr: 0xE98, symBinAddr: 0x10001773C, symSize: 0x54 }
  - { offsetInCU: 0x13767, offset: 0x18F913, size: 0x8, addend: 0x0, symName: __Z10checkInputP10Properties, symObjAddr: 0xEEC, symBinAddr: 0x100017790, symSize: 0x154 }
  - { offsetInCU: 0x13F07, offset: 0x1900B3, size: 0x8, addend: 0x0, symName: __Z21mousePositionCallbackP17__CGEventTapProxy11CGEventTypeP9__CGEventPv, symObjAddr: 0x1268, symBinAddr: 0x100017B0C, symSize: 0x40 }
  - { offsetInCU: 0x13FE8, offset: 0x190194, size: 0x8, addend: 0x0, symName: __Z23isMousePositionObtainedP10Properties, symObjAddr: 0x12A8, symBinAddr: 0x100017B4C, symSize: 0x13C }
  - { offsetInCU: 0x14718, offset: 0x1908C4, size: 0x8, addend: 0x0, symName: '__ZNSt3__110unique_ptrINS_5tupleIJNS0_INS_15__thread_structENS_14default_deleteIS2_EEEEZ15initApplicationP10PropertiesE3$_0EEENS3_IS9_EEED1B8ue170006Ev', symObjAddr: 0x1824, symBinAddr: 0x100017D00, symSize: 0x48 }
...
