---
triple:          'arm64-apple-darwin'
binary-path:     a.out
relocations:
  - { offsetInCU: 0x3F, offset: 0x3F, size: 0x8, addend: 0x0, symName: _test, symObjAddr: 0x19610, symBinAddr: 0x100018000, symSize: 0x0 }
  - { offsetInCU: 0x260, offset: 0x260, size: 0x8, addend: 0x0, symName: _cone_positions, symObjAddr: 0x19618, symBinAddr: 0x100018008, symSize: 0x0 }
  - { offsetInCU: 0x4DBB, offset: 0x4DBB, size: 0x8, addend: 0x0, symName: __ZNSt3__120__throw_length_errorB8ue170006EPKc, symObjAddr: 0x3FC, symBinAddr: 0x1000021EC, symSize: 0x50 }
  - { offsetInCU: 0x500C, offset: 0x500C, size: 0x8, addend: 0x0, symName: __ZSt28__throw_bad_array_new_lengthB8ue170006v, symObjAddr: 0x470, symBinAddr: 0x100002260, symSize: 0x28 }
  - { offsetInCU: 0x7448, offset: 0x7448, size: 0x8, addend: 0x0, symName: __Z10initSocketv, symObjAddr: 0x0, symBinAddr: 0x100001DF0, symSize: 0xAC }
  - { offsetInCU: 0x75D0, offset: 0x75D0, size: 0x8, addend: 0x0, symName: __ZNSt3__16vectorI2v2NS_9allocatorIS1_EEED1B8ue170006Ev, symObjAddr: 0xAC, symBinAddr: 0x100001E9C, symSize: 0x30 }
  - { offsetInCU: 0x77F3, offset: 0x77F3, size: 0x8, addend: 0x0, symName: __Z11updateShreki, symObjAddr: 0xDC, symBinAddr: 0x100001ECC, symSize: 0x164 }
  - { offsetInCU: 0x7A44, offset: 0x7A44, size: 0x8, addend: 0x0, symName: __ZNSt3__16vectorI2v2NS_9allocatorIS1_EEE8__appendEm, symObjAddr: 0x240, symBinAddr: 0x100002030, symSize: 0x1A8 }
  - { offsetInCU: 0x7ED7, offset: 0x7ED7, size: 0x8, addend: 0x0, symName: __ZNKSt3__16vectorI2v2NS_9allocatorIS1_EEE20__throw_length_errorB8ue170006Ev, symObjAddr: 0x3E8, symBinAddr: 0x1000021D8, symSize: 0x14 }
  - { offsetInCU: 0x81EF, offset: 0x81EF, size: 0x8, addend: 0x0, symName: __ZNKSt3__16vectorI2v2NS_9allocatorIS1_EEE20__throw_length_errorB8ue170006Ev, symObjAddr: 0x3E8, symBinAddr: 0x1000021D8, symSize: 0x14 }
  - { offsetInCU: 0x8217, offset: 0x8217, size: 0x8, addend: 0x0, symName: __ZNSt3__120__throw_length_errorB8ue170006EPKc, symObjAddr: 0x3FC, symBinAddr: 0x1000021EC, symSize: 0x50 }
  - { offsetInCU: 0x8221, offset: 0x8221, size: 0x8, addend: 0x0, symName: __ZNSt12length_errorC1B8ue170006EPKc, symObjAddr: 0x44C, symBinAddr: 0x10000223C, symSize: 0x24 }
  - { offsetInCU: 0x3F, offset: 0x8375, size: 0x8, addend: 0x0, symName: _j, symObjAddr: 0xFDA10, symBinAddr: 0x100018020, symSize: 0x0 }
  - { offsetInCU: 0xA894, offset: 0x12BCA, size: 0x8, addend: 0x0, symName: __ZNSt3__124__put_character_sequenceB8ue170006IcNS_11char_traitsIcEEEERNS_13basic_ostreamIT_T0_EES7_PKS4_m, symObjAddr: 0x41F0, symBinAddr: 0x100006400, symSize: 0x164 }
  - { offsetInCU: 0x11C12, offset: 0x19F48, size: 0x8, addend: 0x0, symName: __ZNSt3__111__introsortINS_17_ClassicAlgPolicyERPFbNS_6vectorIN2cv6Point_IiEENS_9allocatorIS5_EEEES8_EPS8_Lb0EEEvT1_SD_T0_NS_15iterator_traitsISD_E15difference_typeEb, symObjAddr: 0x47CC, symBinAddr: 0x1000069C8, symSize: 0x518 }
  - { offsetInCU: 0x135F8, offset: 0x1B92E, size: 0x8, addend: 0x0, symName: __ZNSt3__126__insertion_sort_unguardedB8ue170006INS_17_ClassicAlgPolicyERPFbNS_6vectorIN2cv6Point_IiEENS_9allocatorIS5_EEEES8_EPS8_EEvT1_SD_T0_, symObjAddr: 0x5074, symBinAddr: 0x100007270, symSize: 0x348 }
  - { offsetInCU: 0x14CC0, offset: 0x1CFF6, size: 0x8, addend: 0x0, symName: __ZNSt3__111__sift_downB8ue170006INS_17_ClassicAlgPolicyERPFbNS_6vectorIN2cv6Point_IiEENS_9allocatorIS5_EEEES8_EPS8_EEvT1_OT0_NS_15iterator_traitsISD_E15difference_typeESD_, symObjAddr: 0x774C, symBinAddr: 0x100009948, symSize: 0x60C }
  - { offsetInCU: 0x1764D, offset: 0x1F983, size: 0x8, addend: 0x0, symName: __ZNSt3__117__floyd_sift_downB8ue170006INS_17_ClassicAlgPolicyERPFbNS_6vectorIN2cv6Point_IiEENS_9allocatorIS5_EEEES8_EPS8_EET1_SD_OT0_NS_15iterator_traitsISD_E15difference_typeE, symObjAddr: 0x7E94, symBinAddr: 0x10000A090, symSize: 0x208 }
  - { offsetInCU: 0x18199, offset: 0x204CF, size: 0x8, addend: 0x0, symName: __ZNSt3__131__partition_with_equals_on_leftB8ue170006INS_17_ClassicAlgPolicyEPNS_6vectorIN2cv6Point_IiEENS_9allocatorIS5_EEEERPFbS8_S8_EEET0_SD_SD_T1_, symObjAddr: 0x5A3C, symBinAddr: 0x100007C38, symSize: 0x77C }
  - { offsetInCU: 0x1C09D, offset: 0x243D3, size: 0x8, addend: 0x0, symName: __ZNSt3__132__partition_with_equals_on_rightB8ue170006INS_17_ClassicAlgPolicyEPNS_6vectorIN2cv6Point_IiEENS_9allocatorIS5_EEEERPFbS8_S8_EEENS_4pairIT0_bEESE_SE_T1_, symObjAddr: 0x61B8, symBinAddr: 0x1000083B4, symSize: 0x6A4 }
  - { offsetInCU: 0x1F630, offset: 0x27966, size: 0x8, addend: 0x0, symName: __ZNSt3__127__insertion_sort_incompleteB8ue170006INS_17_ClassicAlgPolicyERPFbNS_6vectorIN2cv6Point_IiEENS_9allocatorIS5_EEEES8_EPS8_EEbT1_SD_T0_, symObjAddr: 0x685C, symBinAddr: 0x100008A58, symSize: 0x5A4 }
  - { offsetInCU: 0x2610D, offset: 0x2E443, size: 0x8, addend: 0x0, symName: __ZNSt3__1rsB8ue170006IcNS_11char_traitsIcEENS_9allocatorIcEEEERNS_13basic_istreamIT_T0_EES9_RNS_12basic_stringIS6_S7_T1_EE, symObjAddr: 0x1130, symBinAddr: 0x1000033DC, symSize: 0x228 }
  - { offsetInCU: 0x26FA9, offset: 0x2F2DF, size: 0x8, addend: 0x0, symName: __ZNSt3__135__uninitialized_allocator_copy_implB8ue170006INS_9allocatorINS_6vectorIN2cv6Point_IiEENS1_IS5_EEEEEEPKS7_SA_PS7_EET2_RT_T0_T1_SC_, symObjAddr: 0x466C, symBinAddr: 0x100006868, symSize: 0xF4 }
  - { offsetInCU: 0x27953, offset: 0x2FC89, size: 0x8, addend: 0x0, symName: __ZNSt3__116__pad_and_outputB8ue170006IcNS_11char_traitsIcEEEENS_19ostreambuf_iteratorIT_T0_EES6_PKS4_S8_S8_RNS_8ios_baseES4_, symObjAddr: 0x4354, symBinAddr: 0x100006564, symSize: 0x194 }
  - { offsetInCU: 0x28616, offset: 0x3094C, size: 0x8, addend: 0x0, symName: __ZNSt3__17__sort3B8ue170006INS_17_ClassicAlgPolicyERPFbNS_6vectorIN2cv6Point_IiEENS_9allocatorIS5_EEEES8_EPS8_EEjT1_SD_SD_T0_, symObjAddr: 0x53BC, symBinAddr: 0x1000075B8, symSize: 0x680 }
  - { offsetInCU: 0x2BBEE, offset: 0x33F24, size: 0x8, addend: 0x0, symName: __ZNSt3__17__sort5B8ue170006INS_17_ClassicAlgPolicyERPFbNS_6vectorIN2cv6Point_IiEENS_9allocatorIS5_EEEES8_EPS8_EEvT1_SD_SD_SD_SD_T0_, symObjAddr: 0x7208, symBinAddr: 0x100009404, symSize: 0x544 }
  - { offsetInCU: 0x2E739, offset: 0x36A6F, size: 0x8, addend: 0x0, symName: __ZNSt3__17__sort4B8ue170006INS_17_ClassicAlgPolicyERPFbNS_6vectorIN2cv6Point_IiEENS_9allocatorIS5_EEEES8_EPS8_EEvT1_SD_SD_SD_T0_, symObjAddr: 0x6E00, symBinAddr: 0x100008FFC, symSize: 0x408 }
  - { offsetInCU: 0x30788, offset: 0x38ABE, size: 0x8, addend: 0x0, symName: __ZNSt3__116__insertion_sortB8ue170006INS_17_ClassicAlgPolicyERPFbNS_6vectorIN2cv6Point_IiEENS_9allocatorIS5_EEEES8_EPS8_EEvT1_SD_T0_, symObjAddr: 0x4CE4, symBinAddr: 0x100006EE0, symSize: 0x390 }
  - { offsetInCU: 0x31DF3, offset: 0x3A129, size: 0x8, addend: 0x0, symName: __ZNSt3__111__sort_heapB8ue170006INS_17_ClassicAlgPolicyERPFbNS_6vectorIN2cv6Point_IiEENS_9allocatorIS5_EEEES8_EPS8_EEvT1_SD_OT0_, symObjAddr: 0x7D58, symBinAddr: 0x100009F54, symSize: 0x13C }
  - { offsetInCU: 0x32417, offset: 0x3A74D, size: 0x8, addend: 0x0, symName: __ZNSt3__19__sift_upB8ue170006INS_17_ClassicAlgPolicyERPFbNS_6vectorIN2cv6Point_IiEENS_9allocatorIS5_EEEES8_EPS8_EEvT1_SD_OT0_NS_15iterator_traitsISD_E15difference_typeE, symObjAddr: 0x809C, symBinAddr: 0x10000A298, symSize: 0x348 }
  - { offsetInCU: 0x3F0F1, offset: 0x47427, size: 0x8, addend: 0x0, symName: __Z14yellowDetectorN2cv3VecIhLi3EEE, symObjAddr: 0x0, symBinAddr: 0x1000022AC, symSize: 0x68 }
  - { offsetInCU: 0x3F135, offset: 0x4746B, size: 0x8, addend: 0x0, symName: __Z19compareDv2ByDistMaxRK3dv2S1_, symObjAddr: 0x68, symBinAddr: 0x100002314, symSize: 0x14 }
  - { offsetInCU: 0x3F171, offset: 0x474A7, size: 0x8, addend: 0x0, symName: __Z19compareDv2ByDistMinRK3dv2S1_, symObjAddr: 0x7C, symBinAddr: 0x100002328, symSize: 0x14 }
  - { offsetInCU: 0x3F1AD, offset: 0x474E3, size: 0x8, addend: 0x0, symName: __Z11compareMinYRK2v2S1_, symObjAddr: 0x90, symBinAddr: 0x10000233C, symSize: 0x14 }
  - { offsetInCU: 0x3F1E9, offset: 0x4751F, size: 0x8, addend: 0x0, symName: __Z11compareMaxYRK2v2S1_, symObjAddr: 0xA4, symBinAddr: 0x100002350, symSize: 0x14 }
  - { offsetInCU: 0x3F225, offset: 0x4755B, size: 0x8, addend: 0x0, symName: __Z11compareMinXRK2v2S1_, symObjAddr: 0xB8, symBinAddr: 0x100002364, symSize: 0x14 }
  - { offsetInCU: 0x3F261, offset: 0x47597, size: 0x8, addend: 0x0, symName: __Z11compareMaxXRK2v2S1_, symObjAddr: 0xCC, symBinAddr: 0x100002378, symSize: 0x14 }
  - { offsetInCU: 0x3F2DD, offset: 0x47613, size: 0x8, addend: 0x0, symName: __Z15getBinaryCenterNSt3__16vectorIN2cv6Point_IiEENS_9allocatorIS3_EEEE, symObjAddr: 0xE0, symBinAddr: 0x10000238C, symSize: 0x190 }
  - { offsetInCU: 0x3F915, offset: 0x47C4B, size: 0x8, addend: 0x0, symName: __Z12furthestEdgeNSt3__16vectorIN2cv6Point_IiEENS_9allocatorIS3_EEEER2v222vectorDerivationMethod, symObjAddr: 0x270, symBinAddr: 0x10000251C, symSize: 0x6B4 }
  - { offsetInCU: 0x40BD6, offset: 0x48F0C, size: 0x8, addend: 0x0, symName: __ZNKSt3__16vectorIN2cv6Point_IiEENS_9allocatorIS3_EEE20__throw_length_errorB8ue170006Ev, symObjAddr: 0x44FC, symBinAddr: 0x1000066F8, symSize: 0x14 }
  - { offsetInCU: 0x40FB3, offset: 0x492E9, size: 0x8, addend: 0x0, symName: __Z21leftPerpendicularEdgeNSt3__16vectorIN2cv6Point_IiEENS_9allocatorIS3_EEEENS1_3MatE2v2S8_, symObjAddr: 0x924, symBinAddr: 0x100002BD0, symSize: 0x224 }
  - { offsetInCU: 0x41DF5, offset: 0x4A12B, size: 0x8, addend: 0x0, symName: __ZNKSt3__16vectorIN2cv6Point_IiEENS_9allocatorIS3_EEE20__throw_length_errorB8ue170006Ev, symObjAddr: 0x44FC, symBinAddr: 0x1000066F8, symSize: 0x14 }
  - { offsetInCU: 0x41E1D, offset: 0x4A153, size: 0x8, addend: 0x0, symName: __ZNSt3__16vectorIN2cv3MatENS_9allocatorIS2_EEE21__push_back_slow_pathIS2_EEvOT_, symObjAddr: 0x4510, symBinAddr: 0x10000670C, symSize: 0x148 }
  - { offsetInCU: 0x4255D, offset: 0x4A893, size: 0x8, addend: 0x0, symName: __Z11colorPickerNSt3__16vectorIN2cv5Rect_IiEENS_9allocatorIS3_EEEENS1_3MatE, symObjAddr: 0xB48, symBinAddr: 0x100002DF4, symSize: 0x5E8 }
  - { offsetInCU: 0x43678, offset: 0x4B9AE, size: 0x8, addend: 0x0, symName: __ZNSt3__114basic_ofstreamIcNS_11char_traitsIcEEEC1EPKcj, symObjAddr: 0x1358, symBinAddr: 0x100003604, symSize: 0x108 }
  - { offsetInCU: 0x4375A, offset: 0x4BA90, size: 0x8, addend: 0x0, symName: __ZNSt3__114basic_ofstreamIcNS_11char_traitsIcEEED1Ev, symObjAddr: 0x1460, symBinAddr: 0x10000370C, symSize: 0x58 }
  - { offsetInCU: 0x439FD, offset: 0x4BD33, size: 0x8, addend: 0x0, symName: __ZmlRK6MatrixS1_, symObjAddr: 0x14B8, symBinAddr: 0x100003764, symSize: 0x34 }
  - { offsetInCU: 0x43A2A, offset: 0x4BD60, size: 0x8, addend: 0x0, symName: __Z14matrix_inverse6Matrix, symObjAddr: 0x14EC, symBinAddr: 0x100003798, symSize: 0x30 }
  - { offsetInCU: 0x43AF5, offset: 0x4BE2B, size: 0x8, addend: 0x0, symName: __Z15transform_pixel2v2S_S_S_S_S_RS_, symObjAddr: 0x151C, symBinAddr: 0x1000037C8, symSize: 0x1AC }
  - { offsetInCU: 0x43CED, offset: 0x4C023, size: 0x8, addend: 0x0, symName: __Z23tranformPixelModelSpace2v2S_S_S_S_, symObjAddr: 0x16C8, symBinAddr: 0x100003974, symSize: 0x7C }
  - { offsetInCU: 0x43DAD, offset: 0x4C0E3, size: 0x8, addend: 0x0, symName: __Z14fillCotourAreaNSt3__16vectorIN2cv6Point_IiEENS_9allocatorIS3_EEEENS1_3MatE, symObjAddr: 0x1744, symBinAddr: 0x1000039F0, symSize: 0x2C4 }
  - { offsetInCU: 0x441A9, offset: 0x4C4DF, size: 0x8, addend: 0x0, symName: __Z19compareContourAreasNSt3__16vectorIN2cv6Point_IiEENS_9allocatorIS3_EEEES6_, symObjAddr: 0x1A08, symBinAddr: 0x100003CB4, symSize: 0x160 }
  - { offsetInCU: 0x445C8, offset: 0x4C8FE, size: 0x8, addend: 0x0, symName: __Z13avgYellownessN2cv3MatE, symObjAddr: 0x1B68, symBinAddr: 0x100003E14, symSize: 0x36C }
  - { offsetInCU: 0x4468C, offset: 0x4C9C2, size: 0x8, addend: 0x0, symName: __Z11frameStdDevN2cv3MatEf, symObjAddr: 0x1ED4, symBinAddr: 0x100004180, symSize: 0x370 }
  - { offsetInCU: 0x447A6, offset: 0x4CADC, size: 0x8, addend: 0x0, symName: __Z14thresholdFrameN2cv3MatERS0_ff, symObjAddr: 0x2244, symBinAddr: 0x1000044F0, symSize: 0x104 }
  - { offsetInCU: 0x447FF, offset: 0x4CB35, size: 0x8, addend: 0x0, symName: __Z14thresholdFrameN2cv3MatERS0_ff, symObjAddr: 0x2244, symBinAddr: 0x1000044F0, symSize: 0x104 }
  - { offsetInCU: 0x44B36, offset: 0x4CE6C, size: 0x8, addend: 0x0, symName: __Z10loadFramesRNSt3__16vectorIN2cv3MatENS_9allocatorIS2_EEEERS2_S7_S7_NS1_12VideoCaptureES7_, symObjAddr: 0x2348, symBinAddr: 0x1000045F4, symSize: 0x558 }
  - { offsetInCU: 0x4761C, offset: 0x4F952, size: 0x8, addend: 0x0, symName: __ZNSt3__16vectorIN2cv3MatENS_9allocatorIS2_EEE21__push_back_slow_pathIS2_EEvOT_, symObjAddr: 0x4510, symBinAddr: 0x10000670C, symSize: 0x148 }
  - { offsetInCU: 0x47AFA, offset: 0x4FE30, size: 0x8, addend: 0x0, symName: __ZNKSt3__16vectorIN2cv3MatENS_9allocatorIS2_EEE20__throw_length_errorB8ue170006Ev, symObjAddr: 0x4658, symBinAddr: 0x100006854, symSize: 0x14 }
  - { offsetInCU: 0x47E98, offset: 0x501CE, size: 0x8, addend: 0x0, symName: __Z14filterContoursNSt3__16vectorINS0_IN2cv6Point_IiEENS_9allocatorIS3_EEEENS4_IS6_EEEERNS1_3MatE, symObjAddr: 0x28A0, symBinAddr: 0x100004B4C, symSize: 0x40C }
  - { offsetInCU: 0x4954B, offset: 0x51881, size: 0x8, addend: 0x0, symName: __Z14filterContoursNSt3__16vectorINS0_IN2cv6Point_IiEENS_9allocatorIS3_EEEENS4_IS6_EEEERNS1_3MatE.cold.2, symObjAddr: 0x8438, symBinAddr: 0x100011450, symSize: 0x54 }
  - { offsetInCU: 0x4973D, offset: 0x51A73, size: 0x8, addend: 0x0, symName: __Z14filterContoursNSt3__16vectorINS0_IN2cv6Point_IiEENS_9allocatorIS3_EEEENS4_IS6_EEEERNS1_3MatE.cold.1, symObjAddr: 0x83E4, symBinAddr: 0x1000113FC, symSize: 0x54 }
  - { offsetInCU: 0x4992F, offset: 0x51C65, size: 0x8, addend: 0x0, symName: __ZNSt3__16vectorINS0_IN2cv6Point_IiEENS_9allocatorIS3_EEEENS4_IS6_EEED1B8ue170006Ev, symObjAddr: 0x2CAC, symBinAddr: 0x100004F58, symSize: 0x74 }
  - { offsetInCU: 0x49D5B, offset: 0x52091, size: 0x8, addend: 0x0, symName: __Z19processFrameVectorsR2v2RNSt3__16vectorIS_NS1_9allocatorIS_EEEES6_S0_22vectorDerivationMethodNS2_IN2cv6Point_IiEENS3_ISA_EEEENS8_3MatE, symObjAddr: 0x2D20, symBinAddr: 0x100004FCC, symSize: 0x514 }
  - { offsetInCU: 0x4B8A9, offset: 0x53BDF, size: 0x8, addend: 0x0, symName: __Z19processModelVectorsN2cv3MatER2v2RNSt3__16vectorIS1_NS3_9allocatorIS1_EEEES8_RS0_22vectorDerivationMethodS0_, symObjAddr: 0x3234, symBinAddr: 0x1000054E0, symSize: 0x644 }
  - { offsetInCU: 0x4DF92, offset: 0x562C8, size: 0x8, addend: 0x0, symName: __Z19tranformFrame2ModelN2cv3MatENSt3__16vectorINS_6Point_IiEENS1_9allocatorIS4_EEEENS2_I2v2NS5_IS8_EEEES8_SA_SA_S8_SA_RS0_, symObjAddr: 0x3878, symBinAddr: 0x100005B24, symSize: 0x884 }
  - { offsetInCU: 0x50D39, offset: 0x5906F, size: 0x8, addend: 0x0, symName: __ZN2cv7MatExprD1Ev, symObjAddr: 0x40FC, symBinAddr: 0x1000063A8, symSize: 0x38 }
  - { offsetInCU: 0x50D78, offset: 0x590AE, size: 0x8, addend: 0x0, symName: __ZNKSt3__112basic_stringIcNS_11char_traitsIcEENS_9allocatorIcEEE20__throw_length_errorB8ue170006Ev, symObjAddr: 0x4140, symBinAddr: 0x1000063EC, symSize: 0x14 }
  - { offsetInCU: 0x512E6, offset: 0x5961C, size: 0x8, addend: 0x0, symName: __ZNKSt3__16vectorIN2cv3MatENS_9allocatorIS2_EEE20__throw_length_errorB8ue170006Ev, symObjAddr: 0x4658, symBinAddr: 0x100006854, symSize: 0x14 }
  - { offsetInCU: 0x5130E, offset: 0x59644, size: 0x8, addend: 0x0, symName: __ZNSt3__135__uninitialized_allocator_copy_implB8ue170006INS_9allocatorINS_6vectorIN2cv6Point_IiEENS1_IS5_EEEEEEPKS7_SA_PS7_EET2_RT_T0_T1_SC_, symObjAddr: 0x466C, symBinAddr: 0x100006868, symSize: 0xF4 }
  - { offsetInCU: 0x513E2, offset: 0x59718, size: 0x8, addend: 0x0, symName: __ZNSt3__128__exception_guard_exceptionsINS_29_AllocatorDestroyRangeReverseINS_9allocatorINS_6vectorIN2cv6Point_IiEENS2_IS6_EEEEEEPS8_EEED1B8ue170006Ev, symObjAddr: 0x4760, symBinAddr: 0x10000695C, symSize: 0x6C }
  - { offsetInCU: 0x51773, offset: 0x59AA9, size: 0x8, addend: 0x0, symName: _OUTLINED_FUNCTION_0, symObjAddr: 0x848C, symBinAddr: 0x10000A5E0, symSize: 0xC }
  - { offsetInCU: 0x5178B, offset: 0x59AC1, size: 0x8, addend: 0x0, symName: _OUTLINED_FUNCTION_1, symObjAddr: 0x8498, symBinAddr: 0x10000A5EC, symSize: 0xC }
  - { offsetInCU: 0x3F, offset: 0x59C08, size: 0x8, addend: 0x0, symName: _normalized_outputs, symObjAddr: 0x1D3A0, symBinAddr: 0x100018028, symSize: 0x0 }
  - { offsetInCU: 0x4B4F, offset: 0x5E718, size: 0x8, addend: 0x0, symName: __ZNSt3__1lsB8ue170006INS_11char_traitsIcEEEERNS_13basic_ostreamIcT_EES6_PKc, symObjAddr: 0x18C, symBinAddr: 0x10000A754, symSize: 0x34 }
  - { offsetInCU: 0x4BCA, offset: 0x5E793, size: 0x8, addend: 0x0, symName: __ZNSt3__14endlB8ue170006IcNS_11char_traitsIcEEEERNS_13basic_ostreamIT_T0_EES7_, symObjAddr: 0x1C0, symBinAddr: 0x10000A788, symSize: 0x90 }
  - { offsetInCU: 0x72E1, offset: 0x60EAA, size: 0x8, addend: 0x0, symName: __Z14initServerSockv, symObjAddr: 0x30, symBinAddr: 0x10000A5F8, symSize: 0x15C }
  - { offsetInCU: 0x775F, offset: 0x61328, size: 0x8, addend: 0x0, symName: __Z8sendDataiNSt3__16vectorI2v2NS_9allocatorIS1_EEEE, symObjAddr: 0x250, symBinAddr: 0x10000A818, symSize: 0xB0 }
  - { offsetInCU: 0x7883, offset: 0x6144C, size: 0x8, addend: 0x0, symName: __Z11closeSocketi, symObjAddr: 0x300, symBinAddr: 0x10000A8C8, symSize: 0x4 }
  - { offsetInCU: 0x78AE, offset: 0x61477, size: 0x8, addend: 0x0, symName: __Z11closeSocketi, symObjAddr: 0x300, symBinAddr: 0x10000A8C8, symSize: 0x4 }
  - { offsetInCU: 0x3F, offset: 0x61961, size: 0x8, addend: 0x0, symName: _mutex, symObjAddr: 0xCB290, symBinAddr: 0x100018040, symSize: 0x0 }
  - { offsetInCU: 0xAD, offset: 0x619CF, size: 0x8, addend: 0x0, symName: _positive_cone, symObjAddr: 0xCB2D0, symBinAddr: 0x100018080, symSize: 0x0 }
  - { offsetInCU: 0xC9, offset: 0x619EB, size: 0x8, addend: 0x0, symName: _saved_imgs, symObjAddr: 0xCB2D8, symBinAddr: 0x100018088, symSize: 0x0 }
  - { offsetInCU: 0x1467D, offset: 0x75F9F, size: 0x8, addend: 0x0, symName: __ZNSt3__135__uninitialized_allocator_copy_implB8ue170006INS_9allocatorINS_6vectorIN2cv6Point_IiEENS1_IS5_EEEEEEPS7_S9_S9_EET2_RT_T0_T1_SA_, symObjAddr: 0x1938, symBinAddr: 0x10000BE00, symSize: 0xF4 }
  - { offsetInCU: 0x1F814, offset: 0x81136, size: 0x8, addend: 0x0, symName: _main, symObjAddr: 0x0, symBinAddr: 0x10000A8F0, symSize: 0x1428 }
  - { offsetInCU: 0x2686A, offset: 0x8818C, size: 0x8, addend: 0x0, symName: __ZNSt3__16vectorINS0_IN2cv6Point_IiEENS_9allocatorIS3_EEEENS4_IS6_EEEC2ERKS8_, symObjAddr: 0x1850, symBinAddr: 0x10000BD18, symSize: 0xD4 }
  - { offsetInCU: 0x26E65, offset: 0x88787, size: 0x8, addend: 0x0, symName: __ZNSt3__16vectorINS0_IN2cv6Point_IiEENS_9allocatorIS3_EEEENS4_IS6_EEEC2ERKS8_.cold.1, symObjAddr: 0x56D8, symBinAddr: 0x1000114A4, symSize: 0x64 }
  - { offsetInCU: 0x2751B, offset: 0x88E3D, size: 0x8, addend: 0x0, symName: __ZNKSt3__16vectorINS0_IN2cv6Point_IiEENS_9allocatorIS3_EEEENS4_IS6_EEE20__throw_length_errorB8ue170006Ev, symObjAddr: 0x1924, symBinAddr: 0x10000BDEC, symSize: 0x14 }
  - { offsetInCU: 0x27543, offset: 0x88E65, size: 0x8, addend: 0x0, symName: __ZNSt3__135__uninitialized_allocator_copy_implB8ue170006INS_9allocatorINS_6vectorIN2cv6Point_IiEENS1_IS5_EEEEEEPS7_S9_S9_EET2_RT_T0_T1_SA_, symObjAddr: 0x1938, symBinAddr: 0x10000BE00, symSize: 0xF4 }
  - { offsetInCU: 0x2754E, offset: 0x88E70, size: 0x8, addend: 0x0, symName: __ZNSt3__16vectorINS0_IN2cv6Point_IiEENS_9allocatorIS3_EEEENS4_IS6_EEEC2ERKS8_.cold.1, symObjAddr: 0x56D8, symBinAddr: 0x1000114A4, symSize: 0x64 }
  - { offsetInCU: 0x26, offset: 0x896C9, size: 0x8, addend: 0x0, symName: __Z7sigmoidf, symObjAddr: 0x0, symBinAddr: 0x10000BEF4, symSize: 0x24 }
  - { offsetInCU: 0x655E, offset: 0x8FC01, size: 0x8, addend: 0x0, symName: __Z7sigmoidf, symObjAddr: 0x0, symBinAddr: 0x10000BEF4, symSize: 0x24 }
  - { offsetInCU: 0x65A9, offset: 0x8FC4C, size: 0x8, addend: 0x0, symName: __Z8dsigmoidf, symObjAddr: 0x24, symBinAddr: 0x10000BF18, symSize: 0x8 }
  - { offsetInCU: 0x6604, offset: 0x8FCA7, size: 0x8, addend: 0x0, symName: __Z6rotate2v2f, symObjAddr: 0x2C, symBinAddr: 0x10000BF20, symSize: 0x3C }
  - { offsetInCU: 0x6655, offset: 0x8FCF8, size: 0x8, addend: 0x0, symName: __Z3dot2v2S_, symObjAddr: 0x68, symBinAddr: 0x10000BF5C, symSize: 0xC }
  - { offsetInCU: 0x667C, offset: 0x8FD1F, size: 0x8, addend: 0x0, symName: __Z13cross_product2v2S_, symObjAddr: 0x74, symBinAddr: 0x10000BF68, symSize: 0xC }
  - { offsetInCU: 0x66B9, offset: 0x8FD5C, size: 0x8, addend: 0x0, symName: __Z17leftPerpendicular2v2, symObjAddr: 0x80, symBinAddr: 0x10000BF74, symSize: 0x10 }
  - { offsetInCU: 0x66E7, offset: 0x8FD8A, size: 0x8, addend: 0x0, symName: __Z18rightPerpendicular2v2, symObjAddr: 0x90, symBinAddr: 0x10000BF84, symSize: 0x10 }
  - { offsetInCU: 0x6705, offset: 0x8FDA8, size: 0x8, addend: 0x0, symName: __Z4signf, symObjAddr: 0xA0, symBinAddr: 0x10000BF94, symSize: 0x1C }
  - { offsetInCU: 0x6733, offset: 0x8FDD6, size: 0x8, addend: 0x0, symName: __Z6length2v2, symObjAddr: 0xBC, symBinAddr: 0x10000BFB0, symSize: 0x10 }
  - { offsetInCU: 0x6751, offset: 0x8FDF4, size: 0x8, addend: 0x0, symName: __Z8lengthSq2v2, symObjAddr: 0xCC, symBinAddr: 0x10000BFC0, symSize: 0xC }
  - { offsetInCU: 0x677F, offset: 0x8FE22, size: 0x8, addend: 0x0, symName: __Z8degToRadf, symObjAddr: 0xD8, symBinAddr: 0x10000BFCC, symSize: 0x24 }
  - { offsetInCU: 0x67AD, offset: 0x8FE50, size: 0x8, addend: 0x0, symName: __Z8radToDegf, symObjAddr: 0xFC, symBinAddr: 0x10000BFF0, symSize: 0x24 }
  - { offsetInCU: 0x68D6, offset: 0x8FF79, size: 0x8, addend: 0x0, symName: __Z7solveIKP2v2ffS_, symObjAddr: 0x120, symBinAddr: 0x10000C014, symSize: 0x94 }
  - { offsetInCU: 0x6A9F, offset: 0x90142, size: 0x8, addend: 0x0, symName: __Z9transform6mat2x22v2, symObjAddr: 0x1B4, symBinAddr: 0x10000C0A8, symSize: 0x14 }
  - { offsetInCU: 0x6B30, offset: 0x901D3, size: 0x8, addend: 0x0, symName: __Z12angleBetween2v2S_, symObjAddr: 0x1C8, symBinAddr: 0x10000C0BC, symSize: 0x7C }
  - { offsetInCU: 0x3F, offset: 0x90395, size: 0x8, addend: 0x0, symName: _generator, symObjAddr: 0xAB7A4, symBinAddr: 0x10001808C, symSize: 0x0 }
  - { offsetInCU: 0x9D85, offset: 0x9A0DB, size: 0x8, addend: 0x0, symName: __ZNSt3__125__throw_bad_function_callB8ue170006Ev, symObjAddr: 0x4FC8, symBinAddr: 0x100010D1C, symSize: 0x34 }
  - { offsetInCU: 0xE8E9, offset: 0x9EC3F, size: 0x8, addend: 0x0, symName: __ZN13NeuralNetwork11feedForwardEPf, symObjAddr: 0x2914, symBinAddr: 0x10000EA4C, symSize: 0x650 }
  - { offsetInCU: 0xF0CE, offset: 0x9F424, size: 0x8, addend: 0x0, symName: __ZN13NeuralNetwork11feedForwardER7Matrix_, symObjAddr: 0x2F64, symBinAddr: 0x10000F09C, symSize: 0x5A0 }
  - { offsetInCU: 0xF7EE, offset: 0x9FB44, size: 0x8, addend: 0x0, symName: __ZN13NeuralNetwork5trainEPfS0_, symObjAddr: 0x3504, symBinAddr: 0x10000F63C, symSize: 0x102C }
  - { offsetInCU: 0x12A48, offset: 0xA2D9E, size: 0x8, addend: 0x0, symName: __ZN7Matrix_C2Eii, symObjAddr: 0x0, symBinAddr: 0x10000C138, symSize: 0xC8 }
  - { offsetInCU: 0x12AF2, offset: 0xA2E48, size: 0x8, addend: 0x0, symName: __ZN7Matrix_C1Eii, symObjAddr: 0xC8, symBinAddr: 0x10000C200, symSize: 0xC8 }
  - { offsetInCU: 0x12C84, offset: 0xA2FDA, size: 0x8, addend: 0x0, symName: __ZN7Matrix_9randomizeEv, symObjAddr: 0x190, symBinAddr: 0x10000C2C8, symSize: 0xE0 }
  - { offsetInCU: 0x12E46, offset: 0xA319C, size: 0x8, addend: 0x0, symName: __ZN7Matrix_3addERS_S0_, symObjAddr: 0x270, symBinAddr: 0x10000C3A8, symSize: 0x270 }
  - { offsetInCU: 0x12F2F, offset: 0xA3285, size: 0x8, addend: 0x0, symName: __ZN7Matrix_3addERS_, symObjAddr: 0x4E0, symBinAddr: 0x10000C618, symSize: 0x1D0 }
  - { offsetInCU: 0x12F7C, offset: 0xA32D2, size: 0x8, addend: 0x0, symName: __ZN7Matrix_3addEf, symObjAddr: 0x6B0, symBinAddr: 0x10000C7E8, symSize: 0x11C }
  - { offsetInCU: 0x12FE5, offset: 0xA333B, size: 0x8, addend: 0x0, symName: __ZN7Matrix_8subtractERS_S0_, symObjAddr: 0x7CC, symBinAddr: 0x10000C904, symSize: 0x270 }
  - { offsetInCU: 0x130CE, offset: 0xA3424, size: 0x8, addend: 0x0, symName: __ZN7Matrix_8subtractERS_, symObjAddr: 0xA3C, symBinAddr: 0x10000CB74, symSize: 0x1D0 }
  - { offsetInCU: 0x13131, offset: 0xA3487, size: 0x8, addend: 0x0, symName: __ZN7Matrix_8subtractEf, symObjAddr: 0xC0C, symBinAddr: 0x10000CD44, symSize: 0x11C }
  - { offsetInCU: 0x1319A, offset: 0xA34F0, size: 0x8, addend: 0x0, symName: __ZN7Matrix_8multiplyERS_, symObjAddr: 0xD28, symBinAddr: 0x10000CE60, symSize: 0x314 }
  - { offsetInCU: 0x132AD, offset: 0xA3603, size: 0x8, addend: 0x0, symName: __ZN7Matrix_8hadamardERS_, symObjAddr: 0x103C, symBinAddr: 0x10000D174, symSize: 0x1D0 }
  - { offsetInCU: 0x132FA, offset: 0xA3650, size: 0x8, addend: 0x0, symName: __ZN7Matrix_8multiplyERS_S0_, symObjAddr: 0x120C, symBinAddr: 0x10000D344, symSize: 0x32C }
  - { offsetInCU: 0x13408, offset: 0xA375E, size: 0x8, addend: 0x0, symName: __ZN7Matrix_8multiplyEf, symObjAddr: 0x1538, symBinAddr: 0x10000D670, symSize: 0x118 }
  - { offsetInCU: 0x13459, offset: 0xA37AF, size: 0x8, addend: 0x0, symName: __ZN7Matrix_8multiplyERS_f, symObjAddr: 0x1650, symBinAddr: 0x10000D788, symSize: 0x208 }
  - { offsetInCU: 0x1354A, offset: 0xA38A0, size: 0x8, addend: 0x0, symName: __ZN7Matrix_9transposeEv, symObjAddr: 0x1858, symBinAddr: 0x10000D990, symSize: 0x148 }
  - { offsetInCU: 0x13638, offset: 0xA398E, size: 0x8, addend: 0x0, symName: __ZN7Matrix_9transposeERS_, symObjAddr: 0x19A0, symBinAddr: 0x10000DAD8, symSize: 0x14C }
  - { offsetInCU: 0x13724, offset: 0xA3A7A, size: 0x8, addend: 0x0, symName: __ZN7Matrix_5printEv, symObjAddr: 0x1AEC, symBinAddr: 0x10000DC24, symSize: 0xAC }
  - { offsetInCU: 0x137C2, offset: 0xA3B18, size: 0x8, addend: 0x0, symName: __ZN7Matrix_9mapDoubleENSt3__18functionIFddEEE, symObjAddr: 0x1B98, symBinAddr: 0x10000DCD0, symSize: 0x194 }
  - { offsetInCU: 0x1395F, offset: 0xA3CB5, size: 0x8, addend: 0x0, symName: __ZN7Matrix_8mapFloatENSt3__18functionIFffEEE, symObjAddr: 0x1D2C, symBinAddr: 0x10000DE64, symSize: 0x18C }
  - { offsetInCU: 0x13AB0, offset: 0xA3E06, size: 0x8, addend: 0x0, symName: __ZN7Matrix_10mapInPlaceENSt3__18functionIFddEEE, symObjAddr: 0x1EB8, symBinAddr: 0x10000DFF0, symSize: 0xC0 }
  - { offsetInCU: 0x13B55, offset: 0xA3EAB, size: 0x8, addend: 0x0, symName: __ZN7Matrix_9fromArrayEPfi, symObjAddr: 0x1F78, symBinAddr: 0x10000E0B0, symSize: 0xC8 }
  - { offsetInCU: 0x13B5F, offset: 0xA3EB5, size: 0x8, addend: 0x0, symName: __ZN7Matrix_9fromArrayEPfi, symObjAddr: 0x1F78, symBinAddr: 0x10000E0B0, symSize: 0xC8 }
  - { offsetInCU: 0x13C29, offset: 0xA3F7F, size: 0x8, addend: 0x0, symName: __ZN7Matrix_7toArrayERS_, symObjAddr: 0x2040, symBinAddr: 0x10000E178, symSize: 0x90 }
  - { offsetInCU: 0x13CAA, offset: 0xA4000, size: 0x8, addend: 0x0, symName: __ZN9Test_DataC2Eiii, symObjAddr: 0x20D0, symBinAddr: 0x10000E208, symSize: 0xE8 }
  - { offsetInCU: 0x13D45, offset: 0xA409B, size: 0x8, addend: 0x0, symName: __ZN9Test_DataC1Eiii, symObjAddr: 0x21B8, symBinAddr: 0x10000E2F0, symSize: 0x4 }
  - { offsetInCU: 0x13DA1, offset: 0xA40F7, size: 0x8, addend: 0x0, symName: __ZN9Test_DataC1Eiii, symObjAddr: 0x21B8, symBinAddr: 0x10000E2F0, symSize: 0x4 }
  - { offsetInCU: 0x13DC9, offset: 0xA411F, size: 0x8, addend: 0x0, symName: __ZN9Test_Data10loadImagesEiiPN2cv3MatE, symObjAddr: 0x21BC, symBinAddr: 0x10000E2F4, symSize: 0x98 }
  - { offsetInCU: 0x13E9D, offset: 0xA41F3, size: 0x8, addend: 0x0, symName: __ZN9Test_Data12assignLabelsEv, symObjAddr: 0x2254, symBinAddr: 0x10000E38C, symSize: 0xB8 }
  - { offsetInCU: 0x13F25, offset: 0xA427B, size: 0x8, addend: 0x0, symName: __ZN13NeuralNetworkC2Eiii, symObjAddr: 0x230C, symBinAddr: 0x10000E444, symSize: 0x604 }
  - { offsetInCU: 0x1473E, offset: 0xA4A94, size: 0x8, addend: 0x0, symName: __ZN13NeuralNetworkC1Eiii, symObjAddr: 0x2910, symBinAddr: 0x10000EA48, symSize: 0x4 }
  - { offsetInCU: 0x1479A, offset: 0xA4AF0, size: 0x8, addend: 0x0, symName: __ZN13NeuralNetworkC1Eiii, symObjAddr: 0x2910, symBinAddr: 0x10000EA48, symSize: 0x4 }
  - { offsetInCU: 0x15902, offset: 0xA5C58, size: 0x8, addend: 0x0, symName: __Z14saveMatrixDataRKNSt3__112basic_stringIcNS_11char_traitsIcEENS_9allocatorIcEEEERK7Matrix_, symObjAddr: 0x4530, symBinAddr: 0x100010668, symSize: 0x23C }
  - { offsetInCU: 0x15BE3, offset: 0xA5F39, size: 0x8, addend: 0x0, symName: __ZNSt3__114basic_ofstreamIcNS_11char_traitsIcEEEC1ERKNS_12basic_stringIcS2_NS_9allocatorIcEEEEj, symObjAddr: 0x476C, symBinAddr: 0x1000108A4, symSize: 0x114 }
  - { offsetInCU: 0x15F67, offset: 0xA62BD, size: 0x8, addend: 0x0, symName: __Z14loadMatrixDataRKNSt3__112basic_stringIcNS_11char_traitsIcEENS_9allocatorIcEEEE, symObjAddr: 0x48D8, symBinAddr: 0x1000109B8, symSize: 0x1F4 }
  - { offsetInCU: 0x160FE, offset: 0xA6454, size: 0x8, addend: 0x0, symName: __ZNSt3__114basic_ifstreamIcNS_11char_traitsIcEEEC1ERKNS_12basic_stringIcS2_NS_9allocatorIcEEEEj, symObjAddr: 0x4ACC, symBinAddr: 0x100010BAC, symSize: 0x118 }
  - { offsetInCU: 0x1627F, offset: 0xA65D5, size: 0x8, addend: 0x0, symName: __ZNSt3__114basic_ifstreamIcNS_11char_traitsIcEEED1Ev, symObjAddr: 0x4BE4, symBinAddr: 0x100010CC4, symSize: 0x58 }
  - { offsetInCU: 0x16745, offset: 0xA6A9B, size: 0x8, addend: 0x0, symName: __ZNSt3__117bad_function_callD1Ev, symObjAddr: 0x4FFC, symBinAddr: 0x100010D50, symSize: 0x4 }
  - { offsetInCU: 0x16767, offset: 0xA6ABD, size: 0x8, addend: 0x0, symName: __ZNSt3__117bad_function_callD1Ev, symObjAddr: 0x4FFC, symBinAddr: 0x100010D50, symSize: 0x4 }
  - { offsetInCU: 0x16799, offset: 0xA6AEF, size: 0x8, addend: 0x0, symName: __ZNSt3__117bad_function_callD0Ev, symObjAddr: 0x5000, symBinAddr: 0x100010D54, symSize: 0x14 }
  - { offsetInCU: 0x167F9, offset: 0xA6B4F, size: 0x8, addend: 0x0, symName: '__ZNSt3__110__function6__funcIZN13NeuralNetwork11feedForwardEPfE3$_0NS_9allocatorIS4_EEFddEED1Ev', symObjAddr: 0x5014, symBinAddr: 0x100010D68, symSize: 0x4 }
  - { offsetInCU: 0x16825, offset: 0xA6B7B, size: 0x8, addend: 0x0, symName: '__ZNSt3__110__function6__funcIZN13NeuralNetwork11feedForwardEPfE3$_0NS_9allocatorIS4_EEFddEED0Ev', symObjAddr: 0x5018, symBinAddr: 0x100010D6C, symSize: 0x4 }
  - { offsetInCU: 0x168D5, offset: 0xA6C2B, size: 0x8, addend: 0x0, symName: '__ZNKSt3__110__function6__funcIZN13NeuralNetwork11feedForwardEPfE3$_0NS_9allocatorIS4_EEFddEE7__cloneEv', symObjAddr: 0x501C, symBinAddr: 0x100010D70, symSize: 0x24 }
  - { offsetInCU: 0x16A15, offset: 0xA6D6B, size: 0x8, addend: 0x0, symName: '__ZNKSt3__110__function6__funcIZN13NeuralNetwork11feedForwardEPfE3$_0NS_9allocatorIS4_EEFddEE7__cloneEPNS0_6__baseIS7_EE', symObjAddr: 0x5040, symBinAddr: 0x100010D94, symSize: 0x10 }
  - { offsetInCU: 0x16A4A, offset: 0xA6DA0, size: 0x8, addend: 0x0, symName: '__ZNKSt3__110__function6__funcIZN13NeuralNetwork11feedForwardEPfE3$_0NS_9allocatorIS4_EEFddEE7__cloneEPNS0_6__baseIS7_EE', symObjAddr: 0x5040, symBinAddr: 0x100010D94, symSize: 0x10 }
  - { offsetInCU: 0x16A66, offset: 0xA6DBC, size: 0x8, addend: 0x0, symName: '__ZNKSt3__110__function6__funcIZN13NeuralNetwork11feedForwardEPfE3$_0NS_9allocatorIS4_EEFddEE7__cloneEPNS0_6__baseIS7_EE', symObjAddr: 0x5040, symBinAddr: 0x100010D94, symSize: 0x10 }
  - { offsetInCU: 0x16A82, offset: 0xA6DD8, size: 0x8, addend: 0x0, symName: '__ZNSt3__110__function6__funcIZN13NeuralNetwork11feedForwardEPfE3$_0NS_9allocatorIS4_EEFddEE7destroyEv', symObjAddr: 0x5050, symBinAddr: 0x100010DA4, symSize: 0x4 }
  - { offsetInCU: 0x16AD0, offset: 0xA6E26, size: 0x8, addend: 0x0, symName: '__ZNSt3__110__function6__funcIZN13NeuralNetwork11feedForwardEPfE3$_0NS_9allocatorIS4_EEFddEE18destroy_deallocateEv', symObjAddr: 0x5054, symBinAddr: 0x100010DA8, symSize: 0x4 }
  - { offsetInCU: 0x16B05, offset: 0xA6E5B, size: 0x8, addend: 0x0, symName: '__ZNSt3__110__function6__funcIZN13NeuralNetwork11feedForwardEPfE3$_0NS_9allocatorIS4_EEFddEE18destroy_deallocateEv', symObjAddr: 0x5054, symBinAddr: 0x100010DA8, symSize: 0x4 }
  - { offsetInCU: 0x16B27, offset: 0xA6E7D, size: 0x8, addend: 0x0, symName: '__ZNSt3__110__function6__funcIZN13NeuralNetwork11feedForwardEPfE3$_0NS_9allocatorIS4_EEFddEE18destroy_deallocateEv', symObjAddr: 0x5054, symBinAddr: 0x100010DA8, symSize: 0x4 }
  - { offsetInCU: 0x16B52, offset: 0xA6EA8, size: 0x8, addend: 0x0, symName: '__ZNSt3__110__function6__funcIZN13NeuralNetwork11feedForwardEPfE3$_0NS_9allocatorIS4_EEFddEE18destroy_deallocateEv', symObjAddr: 0x5054, symBinAddr: 0x100010DA8, symSize: 0x4 }
  - { offsetInCU: 0x16B78, offset: 0xA6ECE, size: 0x8, addend: 0x0, symName: '__ZNSt3__110__function6__funcIZN13NeuralNetwork11feedForwardEPfE3$_0NS_9allocatorIS4_EEFddEE18destroy_deallocateEv', symObjAddr: 0x5054, symBinAddr: 0x100010DA8, symSize: 0x4 }
  - { offsetInCU: 0x16C14, offset: 0xA6F6A, size: 0x8, addend: 0x0, symName: '__ZNSt3__110__function6__funcIZN13NeuralNetwork11feedForwardEPfE3$_0NS_9allocatorIS4_EEFddEEclEOd', symObjAddr: 0x5058, symBinAddr: 0x100010DAC, symSize: 0x20 }
  - { offsetInCU: 0x16D1F, offset: 0xA7075, size: 0x8, addend: 0x0, symName: '__ZNKSt3__110__function6__funcIZN13NeuralNetwork11feedForwardEPfE3$_0NS_9allocatorIS4_EEFddEE6targetERKSt9type_info', symObjAddr: 0x5078, symBinAddr: 0x100010DCC, symSize: 0x60 }
  - { offsetInCU: 0x16DA6, offset: 0xA70FC, size: 0x8, addend: 0x0, symName: '__ZNKSt3__110__function6__funcIZN13NeuralNetwork11feedForwardEPfE3$_0NS_9allocatorIS4_EEFddEE11target_typeEv', symObjAddr: 0x50D8, symBinAddr: 0x100010E2C, symSize: 0xC }
  - { offsetInCU: 0x16DCA, offset: 0xA7120, size: 0x8, addend: 0x0, symName: '__ZNSt3__110__function6__funcIZN13NeuralNetwork11feedForwardEPfE3$_1NS_9allocatorIS4_EEFddEED1Ev', symObjAddr: 0x50E4, symBinAddr: 0x100010E38, symSize: 0x4 }
  - { offsetInCU: 0x16DF6, offset: 0xA714C, size: 0x8, addend: 0x0, symName: '__ZNSt3__110__function6__funcIZN13NeuralNetwork11feedForwardEPfE3$_1NS_9allocatorIS4_EEFddEED0Ev', symObjAddr: 0x50E8, symBinAddr: 0x100010E3C, symSize: 0x4 }
  - { offsetInCU: 0x16EA6, offset: 0xA71FC, size: 0x8, addend: 0x0, symName: '__ZNKSt3__110__function6__funcIZN13NeuralNetwork11feedForwardEPfE3$_1NS_9allocatorIS4_EEFddEE7__cloneEv', symObjAddr: 0x50EC, symBinAddr: 0x100010E40, symSize: 0x24 }
  - { offsetInCU: 0x16FE6, offset: 0xA733C, size: 0x8, addend: 0x0, symName: '__ZNKSt3__110__function6__funcIZN13NeuralNetwork11feedForwardEPfE3$_1NS_9allocatorIS4_EEFddEE7__cloneEPNS0_6__baseIS7_EE', symObjAddr: 0x5110, symBinAddr: 0x100010E64, symSize: 0x10 }
  - { offsetInCU: 0x1701B, offset: 0xA7371, size: 0x8, addend: 0x0, symName: '__ZNKSt3__110__function6__funcIZN13NeuralNetwork11feedForwardEPfE3$_1NS_9allocatorIS4_EEFddEE7__cloneEPNS0_6__baseIS7_EE', symObjAddr: 0x5110, symBinAddr: 0x100010E64, symSize: 0x10 }
  - { offsetInCU: 0x17037, offset: 0xA738D, size: 0x8, addend: 0x0, symName: '__ZNKSt3__110__function6__funcIZN13NeuralNetwork11feedForwardEPfE3$_1NS_9allocatorIS4_EEFddEE7__cloneEPNS0_6__baseIS7_EE', symObjAddr: 0x5110, symBinAddr: 0x100010E64, symSize: 0x10 }
  - { offsetInCU: 0x17053, offset: 0xA73A9, size: 0x8, addend: 0x0, symName: '__ZNSt3__110__function6__funcIZN13NeuralNetwork11feedForwardEPfE3$_1NS_9allocatorIS4_EEFddEE7destroyEv', symObjAddr: 0x5120, symBinAddr: 0x100010E74, symSize: 0x4 }
  - { offsetInCU: 0x170A1, offset: 0xA73F7, size: 0x8, addend: 0x0, symName: '__ZNSt3__110__function6__funcIZN13NeuralNetwork11feedForwardEPfE3$_1NS_9allocatorIS4_EEFddEE18destroy_deallocateEv', symObjAddr: 0x5124, symBinAddr: 0x100010E78, symSize: 0x4 }
  - { offsetInCU: 0x170D6, offset: 0xA742C, size: 0x8, addend: 0x0, symName: '__ZNSt3__110__function6__funcIZN13NeuralNetwork11feedForwardEPfE3$_1NS_9allocatorIS4_EEFddEE18destroy_deallocateEv', symObjAddr: 0x5124, symBinAddr: 0x100010E78, symSize: 0x4 }
  - { offsetInCU: 0x170F8, offset: 0xA744E, size: 0x8, addend: 0x0, symName: '__ZNSt3__110__function6__funcIZN13NeuralNetwork11feedForwardEPfE3$_1NS_9allocatorIS4_EEFddEE18destroy_deallocateEv', symObjAddr: 0x5124, symBinAddr: 0x100010E78, symSize: 0x4 }
  - { offsetInCU: 0x17123, offset: 0xA7479, size: 0x8, addend: 0x0, symName: '__ZNSt3__110__function6__funcIZN13NeuralNetwork11feedForwardEPfE3$_1NS_9allocatorIS4_EEFddEE18destroy_deallocateEv', symObjAddr: 0x5124, symBinAddr: 0x100010E78, symSize: 0x4 }
  - { offsetInCU: 0x17149, offset: 0xA749F, size: 0x8, addend: 0x0, symName: '__ZNSt3__110__function6__funcIZN13NeuralNetwork11feedForwardEPfE3$_1NS_9allocatorIS4_EEFddEE18destroy_deallocateEv', symObjAddr: 0x5124, symBinAddr: 0x100010E78, symSize: 0x4 }
  - { offsetInCU: 0x171E5, offset: 0xA753B, size: 0x8, addend: 0x0, symName: '__ZNSt3__110__function6__funcIZN13NeuralNetwork11feedForwardEPfE3$_1NS_9allocatorIS4_EEFddEEclEOd', symObjAddr: 0x5128, symBinAddr: 0x100010E7C, symSize: 0x20 }
  - { offsetInCU: 0x17285, offset: 0xA75DB, size: 0x8, addend: 0x0, symName: '__ZNKSt3__110__function6__funcIZN13NeuralNetwork11feedForwardEPfE3$_1NS_9allocatorIS4_EEFddEE6targetERKSt9type_info', symObjAddr: 0x5148, symBinAddr: 0x100010E9C, symSize: 0x60 }
  - { offsetInCU: 0x1730C, offset: 0xA7662, size: 0x8, addend: 0x0, symName: '__ZNKSt3__110__function6__funcIZN13NeuralNetwork11feedForwardEPfE3$_1NS_9allocatorIS4_EEFddEE11target_typeEv', symObjAddr: 0x51A8, symBinAddr: 0x100010EFC, symSize: 0xC }
  - { offsetInCU: 0x17330, offset: 0xA7686, size: 0x8, addend: 0x0, symName: '__ZNSt3__110__function6__funcIZN13NeuralNetwork11feedForwardER7Matrix_E3$_2NS_9allocatorIS5_EEFddEED1Ev', symObjAddr: 0x51B4, symBinAddr: 0x100010F08, symSize: 0x4 }
  - { offsetInCU: 0x1735C, offset: 0xA76B2, size: 0x8, addend: 0x0, symName: '__ZNSt3__110__function6__funcIZN13NeuralNetwork11feedForwardER7Matrix_E3$_2NS_9allocatorIS5_EEFddEED0Ev', symObjAddr: 0x51B8, symBinAddr: 0x100010F0C, symSize: 0x4 }
  - { offsetInCU: 0x1740C, offset: 0xA7762, size: 0x8, addend: 0x0, symName: '__ZNKSt3__110__function6__funcIZN13NeuralNetwork11feedForwardER7Matrix_E3$_2NS_9allocatorIS5_EEFddEE7__cloneEv', symObjAddr: 0x51BC, symBinAddr: 0x100010F10, symSize: 0x24 }
  - { offsetInCU: 0x1754C, offset: 0xA78A2, size: 0x8, addend: 0x0, symName: '__ZNKSt3__110__function6__funcIZN13NeuralNetwork11feedForwardER7Matrix_E3$_2NS_9allocatorIS5_EEFddEE7__cloneEPNS0_6__baseIS8_EE', symObjAddr: 0x51E0, symBinAddr: 0x100010F34, symSize: 0x10 }
  - { offsetInCU: 0x17581, offset: 0xA78D7, size: 0x8, addend: 0x0, symName: '__ZNKSt3__110__function6__funcIZN13NeuralNetwork11feedForwardER7Matrix_E3$_2NS_9allocatorIS5_EEFddEE7__cloneEPNS0_6__baseIS8_EE', symObjAddr: 0x51E0, symBinAddr: 0x100010F34, symSize: 0x10 }
  - { offsetInCU: 0x1759D, offset: 0xA78F3, size: 0x8, addend: 0x0, symName: '__ZNKSt3__110__function6__funcIZN13NeuralNetwork11feedForwardER7Matrix_E3$_2NS_9allocatorIS5_EEFddEE7__cloneEPNS0_6__baseIS8_EE', symObjAddr: 0x51E0, symBinAddr: 0x100010F34, symSize: 0x10 }
  - { offsetInCU: 0x175B9, offset: 0xA790F, size: 0x8, addend: 0x0, symName: '__ZNSt3__110__function6__funcIZN13NeuralNetwork11feedForwardER7Matrix_E3$_2NS_9allocatorIS5_EEFddEE7destroyEv', symObjAddr: 0x51F0, symBinAddr: 0x100010F44, symSize: 0x4 }
  - { offsetInCU: 0x17607, offset: 0xA795D, size: 0x8, addend: 0x0, symName: '__ZNSt3__110__function6__funcIZN13NeuralNetwork11feedForwardER7Matrix_E3$_2NS_9allocatorIS5_EEFddEE18destroy_deallocateEv', symObjAddr: 0x51F4, symBinAddr: 0x100010F48, symSize: 0x4 }
  - { offsetInCU: 0x1763C, offset: 0xA7992, size: 0x8, addend: 0x0, symName: '__ZNSt3__110__function6__funcIZN13NeuralNetwork11feedForwardER7Matrix_E3$_2NS_9allocatorIS5_EEFddEE18destroy_deallocateEv', symObjAddr: 0x51F4, symBinAddr: 0x100010F48, symSize: 0x4 }
  - { offsetInCU: 0x1765E, offset: 0xA79B4, size: 0x8, addend: 0x0, symName: '__ZNSt3__110__function6__funcIZN13NeuralNetwork11feedForwardER7Matrix_E3$_2NS_9allocatorIS5_EEFddEE18destroy_deallocateEv', symObjAddr: 0x51F4, symBinAddr: 0x100010F48, symSize: 0x4 }
  - { offsetInCU: 0x17689, offset: 0xA79DF, size: 0x8, addend: 0x0, symName: '__ZNSt3__110__function6__funcIZN13NeuralNetwork11feedForwardER7Matrix_E3$_2NS_9allocatorIS5_EEFddEE18destroy_deallocateEv', symObjAddr: 0x51F4, symBinAddr: 0x100010F48, symSize: 0x4 }
  - { offsetInCU: 0x176AF, offset: 0xA7A05, size: 0x8, addend: 0x0, symName: '__ZNSt3__110__function6__funcIZN13NeuralNetwork11feedForwardER7Matrix_E3$_2NS_9allocatorIS5_EEFddEE18destroy_deallocateEv', symObjAddr: 0x51F4, symBinAddr: 0x100010F48, symSize: 0x4 }
  - { offsetInCU: 0x1774B, offset: 0xA7AA1, size: 0x8, addend: 0x0, symName: '__ZNSt3__110__function6__funcIZN13NeuralNetwork11feedForwardER7Matrix_E3$_2NS_9allocatorIS5_EEFddEEclEOd', symObjAddr: 0x51F8, symBinAddr: 0x100010F4C, symSize: 0x20 }
  - { offsetInCU: 0x177EB, offset: 0xA7B41, size: 0x8, addend: 0x0, symName: '__ZNKSt3__110__function6__funcIZN13NeuralNetwork11feedForwardER7Matrix_E3$_2NS_9allocatorIS5_EEFddEE6targetERKSt9type_info', symObjAddr: 0x5218, symBinAddr: 0x100010F6C, symSize: 0x60 }
  - { offsetInCU: 0x17872, offset: 0xA7BC8, size: 0x8, addend: 0x0, symName: '__ZNKSt3__110__function6__funcIZN13NeuralNetwork11feedForwardER7Matrix_E3$_2NS_9allocatorIS5_EEFddEE11target_typeEv', symObjAddr: 0x5278, symBinAddr: 0x100010FCC, symSize: 0xC }
  - { offsetInCU: 0x17896, offset: 0xA7BEC, size: 0x8, addend: 0x0, symName: '__ZNSt3__110__function6__funcIZN13NeuralNetwork11feedForwardER7Matrix_E3$_3NS_9allocatorIS5_EEFddEED1Ev', symObjAddr: 0x5284, symBinAddr: 0x100010FD8, symSize: 0x4 }
  - { offsetInCU: 0x178C2, offset: 0xA7C18, size: 0x8, addend: 0x0, symName: '__ZNSt3__110__function6__funcIZN13NeuralNetwork11feedForwardER7Matrix_E3$_3NS_9allocatorIS5_EEFddEED0Ev', symObjAddr: 0x5288, symBinAddr: 0x100010FDC, symSize: 0x4 }
  - { offsetInCU: 0x17972, offset: 0xA7CC8, size: 0x8, addend: 0x0, symName: '__ZNKSt3__110__function6__funcIZN13NeuralNetwork11feedForwardER7Matrix_E3$_3NS_9allocatorIS5_EEFddEE7__cloneEv', symObjAddr: 0x528C, symBinAddr: 0x100010FE0, symSize: 0x24 }
  - { offsetInCU: 0x17AB2, offset: 0xA7E08, size: 0x8, addend: 0x0, symName: '__ZNKSt3__110__function6__funcIZN13NeuralNetwork11feedForwardER7Matrix_E3$_3NS_9allocatorIS5_EEFddEE7__cloneEPNS0_6__baseIS8_EE', symObjAddr: 0x52B0, symBinAddr: 0x100011004, symSize: 0x10 }
  - { offsetInCU: 0x17AE7, offset: 0xA7E3D, size: 0x8, addend: 0x0, symName: '__ZNKSt3__110__function6__funcIZN13NeuralNetwork11feedForwardER7Matrix_E3$_3NS_9allocatorIS5_EEFddEE7__cloneEPNS0_6__baseIS8_EE', symObjAddr: 0x52B0, symBinAddr: 0x100011004, symSize: 0x10 }
  - { offsetInCU: 0x17B03, offset: 0xA7E59, size: 0x8, addend: 0x0, symName: '__ZNKSt3__110__function6__funcIZN13NeuralNetwork11feedForwardER7Matrix_E3$_3NS_9allocatorIS5_EEFddEE7__cloneEPNS0_6__baseIS8_EE', symObjAddr: 0x52B0, symBinAddr: 0x100011004, symSize: 0x10 }
  - { offsetInCU: 0x17B1F, offset: 0xA7E75, size: 0x8, addend: 0x0, symName: '__ZNSt3__110__function6__funcIZN13NeuralNetwork11feedForwardER7Matrix_E3$_3NS_9allocatorIS5_EEFddEE7destroyEv', symObjAddr: 0x52C0, symBinAddr: 0x100011014, symSize: 0x4 }
  - { offsetInCU: 0x17B6D, offset: 0xA7EC3, size: 0x8, addend: 0x0, symName: '__ZNSt3__110__function6__funcIZN13NeuralNetwork11feedForwardER7Matrix_E3$_3NS_9allocatorIS5_EEFddEE18destroy_deallocateEv', symObjAddr: 0x52C4, symBinAddr: 0x100011018, symSize: 0x4 }
  - { offsetInCU: 0x17BA2, offset: 0xA7EF8, size: 0x8, addend: 0x0, symName: '__ZNSt3__110__function6__funcIZN13NeuralNetwork11feedForwardER7Matrix_E3$_3NS_9allocatorIS5_EEFddEE18destroy_deallocateEv', symObjAddr: 0x52C4, symBinAddr: 0x100011018, symSize: 0x4 }
  - { offsetInCU: 0x17BC4, offset: 0xA7F1A, size: 0x8, addend: 0x0, symName: '__ZNSt3__110__function6__funcIZN13NeuralNetwork11feedForwardER7Matrix_E3$_3NS_9allocatorIS5_EEFddEE18destroy_deallocateEv', symObjAddr: 0x52C4, symBinAddr: 0x100011018, symSize: 0x4 }
  - { offsetInCU: 0x17BEF, offset: 0xA7F45, size: 0x8, addend: 0x0, symName: '__ZNSt3__110__function6__funcIZN13NeuralNetwork11feedForwardER7Matrix_E3$_3NS_9allocatorIS5_EEFddEE18destroy_deallocateEv', symObjAddr: 0x52C4, symBinAddr: 0x100011018, symSize: 0x4 }
  - { offsetInCU: 0x17C15, offset: 0xA7F6B, size: 0x8, addend: 0x0, symName: '__ZNSt3__110__function6__funcIZN13NeuralNetwork11feedForwardER7Matrix_E3$_3NS_9allocatorIS5_EEFddEE18destroy_deallocateEv', symObjAddr: 0x52C4, symBinAddr: 0x100011018, symSize: 0x4 }
  - { offsetInCU: 0x17CB1, offset: 0xA8007, size: 0x8, addend: 0x0, symName: '__ZNSt3__110__function6__funcIZN13NeuralNetwork11feedForwardER7Matrix_E3$_3NS_9allocatorIS5_EEFddEEclEOd', symObjAddr: 0x52C8, symBinAddr: 0x10001101C, symSize: 0x20 }
  - { offsetInCU: 0x17D51, offset: 0xA80A7, size: 0x8, addend: 0x0, symName: '__ZNKSt3__110__function6__funcIZN13NeuralNetwork11feedForwardER7Matrix_E3$_3NS_9allocatorIS5_EEFddEE6targetERKSt9type_info', symObjAddr: 0x52E8, symBinAddr: 0x10001103C, symSize: 0x60 }
  - { offsetInCU: 0x17DD8, offset: 0xA812E, size: 0x8, addend: 0x0, symName: '__ZNKSt3__110__function6__funcIZN13NeuralNetwork11feedForwardER7Matrix_E3$_3NS_9allocatorIS5_EEFddEE11target_typeEv', symObjAddr: 0x5348, symBinAddr: 0x10001109C, symSize: 0xC }
  - { offsetInCU: 0x17DFC, offset: 0xA8152, size: 0x8, addend: 0x0, symName: '__ZNSt3__110__function6__funcIZN13NeuralNetwork5trainEPfS3_E3$_4NS_9allocatorIS4_EEFddEED1Ev', symObjAddr: 0x5354, symBinAddr: 0x1000110A8, symSize: 0x4 }
  - { offsetInCU: 0x17E28, offset: 0xA817E, size: 0x8, addend: 0x0, symName: '__ZNSt3__110__function6__funcIZN13NeuralNetwork5trainEPfS3_E3$_4NS_9allocatorIS4_EEFddEED0Ev', symObjAddr: 0x5358, symBinAddr: 0x1000110AC, symSize: 0x4 }
  - { offsetInCU: 0x17ED8, offset: 0xA822E, size: 0x8, addend: 0x0, symName: '__ZNKSt3__110__function6__funcIZN13NeuralNetwork5trainEPfS3_E3$_4NS_9allocatorIS4_EEFddEE7__cloneEv', symObjAddr: 0x535C, symBinAddr: 0x1000110B0, symSize: 0x24 }
  - { offsetInCU: 0x18018, offset: 0xA836E, size: 0x8, addend: 0x0, symName: '__ZNKSt3__110__function6__funcIZN13NeuralNetwork5trainEPfS3_E3$_4NS_9allocatorIS4_EEFddEE7__cloneEPNS0_6__baseIS7_EE', symObjAddr: 0x5380, symBinAddr: 0x1000110D4, symSize: 0x10 }
  - { offsetInCU: 0x1804D, offset: 0xA83A3, size: 0x8, addend: 0x0, symName: '__ZNKSt3__110__function6__funcIZN13NeuralNetwork5trainEPfS3_E3$_4NS_9allocatorIS4_EEFddEE7__cloneEPNS0_6__baseIS7_EE', symObjAddr: 0x5380, symBinAddr: 0x1000110D4, symSize: 0x10 }
  - { offsetInCU: 0x18069, offset: 0xA83BF, size: 0x8, addend: 0x0, symName: '__ZNKSt3__110__function6__funcIZN13NeuralNetwork5trainEPfS3_E3$_4NS_9allocatorIS4_EEFddEE7__cloneEPNS0_6__baseIS7_EE', symObjAddr: 0x5380, symBinAddr: 0x1000110D4, symSize: 0x10 }
  - { offsetInCU: 0x18085, offset: 0xA83DB, size: 0x8, addend: 0x0, symName: '__ZNSt3__110__function6__funcIZN13NeuralNetwork5trainEPfS3_E3$_4NS_9allocatorIS4_EEFddEE7destroyEv', symObjAddr: 0x5390, symBinAddr: 0x1000110E4, symSize: 0x4 }
  - { offsetInCU: 0x180D3, offset: 0xA8429, size: 0x8, addend: 0x0, symName: '__ZNSt3__110__function6__funcIZN13NeuralNetwork5trainEPfS3_E3$_4NS_9allocatorIS4_EEFddEE18destroy_deallocateEv', symObjAddr: 0x5394, symBinAddr: 0x1000110E8, symSize: 0x4 }
  - { offsetInCU: 0x18108, offset: 0xA845E, size: 0x8, addend: 0x0, symName: '__ZNSt3__110__function6__funcIZN13NeuralNetwork5trainEPfS3_E3$_4NS_9allocatorIS4_EEFddEE18destroy_deallocateEv', symObjAddr: 0x5394, symBinAddr: 0x1000110E8, symSize: 0x4 }
  - { offsetInCU: 0x1812A, offset: 0xA8480, size: 0x8, addend: 0x0, symName: '__ZNSt3__110__function6__funcIZN13NeuralNetwork5trainEPfS3_E3$_4NS_9allocatorIS4_EEFddEE18destroy_deallocateEv', symObjAddr: 0x5394, symBinAddr: 0x1000110E8, symSize: 0x4 }
  - { offsetInCU: 0x18155, offset: 0xA84AB, size: 0x8, addend: 0x0, symName: '__ZNSt3__110__function6__funcIZN13NeuralNetwork5trainEPfS3_E3$_4NS_9allocatorIS4_EEFddEE18destroy_deallocateEv', symObjAddr: 0x5394, symBinAddr: 0x1000110E8, symSize: 0x4 }
  - { offsetInCU: 0x1817B, offset: 0xA84D1, size: 0x8, addend: 0x0, symName: '__ZNSt3__110__function6__funcIZN13NeuralNetwork5trainEPfS3_E3$_4NS_9allocatorIS4_EEFddEE18destroy_deallocateEv', symObjAddr: 0x5394, symBinAddr: 0x1000110E8, symSize: 0x4 }
  - { offsetInCU: 0x18217, offset: 0xA856D, size: 0x8, addend: 0x0, symName: '__ZNSt3__110__function6__funcIZN13NeuralNetwork5trainEPfS3_E3$_4NS_9allocatorIS4_EEFddEEclEOd', symObjAddr: 0x5398, symBinAddr: 0x1000110EC, symSize: 0x20 }
  - { offsetInCU: 0x182B7, offset: 0xA860D, size: 0x8, addend: 0x0, symName: '__ZNKSt3__110__function6__funcIZN13NeuralNetwork5trainEPfS3_E3$_4NS_9allocatorIS4_EEFddEE6targetERKSt9type_info', symObjAddr: 0x53B8, symBinAddr: 0x10001110C, symSize: 0x60 }
  - { offsetInCU: 0x1833E, offset: 0xA8694, size: 0x8, addend: 0x0, symName: '__ZNKSt3__110__function6__funcIZN13NeuralNetwork5trainEPfS3_E3$_4NS_9allocatorIS4_EEFddEE11target_typeEv', symObjAddr: 0x5418, symBinAddr: 0x10001116C, symSize: 0xC }
  - { offsetInCU: 0x18362, offset: 0xA86B8, size: 0x8, addend: 0x0, symName: '__ZNSt3__110__function6__funcIZN13NeuralNetwork5trainEPfS3_E3$_5NS_9allocatorIS4_EEFddEED1Ev', symObjAddr: 0x5424, symBinAddr: 0x100011178, symSize: 0x4 }
  - { offsetInCU: 0x1838E, offset: 0xA86E4, size: 0x8, addend: 0x0, symName: '__ZNSt3__110__function6__funcIZN13NeuralNetwork5trainEPfS3_E3$_5NS_9allocatorIS4_EEFddEED0Ev', symObjAddr: 0x5428, symBinAddr: 0x10001117C, symSize: 0x4 }
  - { offsetInCU: 0x1843E, offset: 0xA8794, size: 0x8, addend: 0x0, symName: '__ZNKSt3__110__function6__funcIZN13NeuralNetwork5trainEPfS3_E3$_5NS_9allocatorIS4_EEFddEE7__cloneEv', symObjAddr: 0x542C, symBinAddr: 0x100011180, symSize: 0x24 }
  - { offsetInCU: 0x1857E, offset: 0xA88D4, size: 0x8, addend: 0x0, symName: '__ZNKSt3__110__function6__funcIZN13NeuralNetwork5trainEPfS3_E3$_5NS_9allocatorIS4_EEFddEE7__cloneEPNS0_6__baseIS7_EE', symObjAddr: 0x5450, symBinAddr: 0x1000111A4, symSize: 0x10 }
  - { offsetInCU: 0x185B3, offset: 0xA8909, size: 0x8, addend: 0x0, symName: '__ZNKSt3__110__function6__funcIZN13NeuralNetwork5trainEPfS3_E3$_5NS_9allocatorIS4_EEFddEE7__cloneEPNS0_6__baseIS7_EE', symObjAddr: 0x5450, symBinAddr: 0x1000111A4, symSize: 0x10 }
  - { offsetInCU: 0x185CF, offset: 0xA8925, size: 0x8, addend: 0x0, symName: '__ZNKSt3__110__function6__funcIZN13NeuralNetwork5trainEPfS3_E3$_5NS_9allocatorIS4_EEFddEE7__cloneEPNS0_6__baseIS7_EE', symObjAddr: 0x5450, symBinAddr: 0x1000111A4, symSize: 0x10 }
  - { offsetInCU: 0x185EB, offset: 0xA8941, size: 0x8, addend: 0x0, symName: '__ZNSt3__110__function6__funcIZN13NeuralNetwork5trainEPfS3_E3$_5NS_9allocatorIS4_EEFddEE7destroyEv', symObjAddr: 0x5460, symBinAddr: 0x1000111B4, symSize: 0x4 }
  - { offsetInCU: 0x18639, offset: 0xA898F, size: 0x8, addend: 0x0, symName: '__ZNSt3__110__function6__funcIZN13NeuralNetwork5trainEPfS3_E3$_5NS_9allocatorIS4_EEFddEE18destroy_deallocateEv', symObjAddr: 0x5464, symBinAddr: 0x1000111B8, symSize: 0x4 }
  - { offsetInCU: 0x1866E, offset: 0xA89C4, size: 0x8, addend: 0x0, symName: '__ZNSt3__110__function6__funcIZN13NeuralNetwork5trainEPfS3_E3$_5NS_9allocatorIS4_EEFddEE18destroy_deallocateEv', symObjAddr: 0x5464, symBinAddr: 0x1000111B8, symSize: 0x4 }
  - { offsetInCU: 0x18690, offset: 0xA89E6, size: 0x8, addend: 0x0, symName: '__ZNSt3__110__function6__funcIZN13NeuralNetwork5trainEPfS3_E3$_5NS_9allocatorIS4_EEFddEE18destroy_deallocateEv', symObjAddr: 0x5464, symBinAddr: 0x1000111B8, symSize: 0x4 }
  - { offsetInCU: 0x186BB, offset: 0xA8A11, size: 0x8, addend: 0x0, symName: '__ZNSt3__110__function6__funcIZN13NeuralNetwork5trainEPfS3_E3$_5NS_9allocatorIS4_EEFddEE18destroy_deallocateEv', symObjAddr: 0x5464, symBinAddr: 0x1000111B8, symSize: 0x4 }
  - { offsetInCU: 0x186E1, offset: 0xA8A37, size: 0x8, addend: 0x0, symName: '__ZNSt3__110__function6__funcIZN13NeuralNetwork5trainEPfS3_E3$_5NS_9allocatorIS4_EEFddEE18destroy_deallocateEv', symObjAddr: 0x5464, symBinAddr: 0x1000111B8, symSize: 0x4 }
  - { offsetInCU: 0x1877D, offset: 0xA8AD3, size: 0x8, addend: 0x0, symName: '__ZNSt3__110__function6__funcIZN13NeuralNetwork5trainEPfS3_E3$_5NS_9allocatorIS4_EEFddEEclEOd', symObjAddr: 0x5468, symBinAddr: 0x1000111BC, symSize: 0x20 }
  - { offsetInCU: 0x1881D, offset: 0xA8B73, size: 0x8, addend: 0x0, symName: '__ZNKSt3__110__function6__funcIZN13NeuralNetwork5trainEPfS3_E3$_5NS_9allocatorIS4_EEFddEE6targetERKSt9type_info', symObjAddr: 0x5488, symBinAddr: 0x1000111DC, symSize: 0x60 }
  - { offsetInCU: 0x188A4, offset: 0xA8BFA, size: 0x8, addend: 0x0, symName: '__ZNKSt3__110__function6__funcIZN13NeuralNetwork5trainEPfS3_E3$_5NS_9allocatorIS4_EEFddEE11target_typeEv', symObjAddr: 0x54E8, symBinAddr: 0x10001123C, symSize: 0xC }
  - { offsetInCU: 0x188C8, offset: 0xA8C1E, size: 0x8, addend: 0x0, symName: '__ZNSt3__110__function6__funcIZN13NeuralNetwork5trainEPfS3_E3$_6NS_9allocatorIS4_EEFffEED1Ev', symObjAddr: 0x54F4, symBinAddr: 0x100011248, symSize: 0x4 }
  - { offsetInCU: 0x188F4, offset: 0xA8C4A, size: 0x8, addend: 0x0, symName: '__ZNSt3__110__function6__funcIZN13NeuralNetwork5trainEPfS3_E3$_6NS_9allocatorIS4_EEFffEED0Ev', symObjAddr: 0x54F8, symBinAddr: 0x10001124C, symSize: 0x4 }
  - { offsetInCU: 0x189A4, offset: 0xA8CFA, size: 0x8, addend: 0x0, symName: '__ZNKSt3__110__function6__funcIZN13NeuralNetwork5trainEPfS3_E3$_6NS_9allocatorIS4_EEFffEE7__cloneEv', symObjAddr: 0x54FC, symBinAddr: 0x100011250, symSize: 0x24 }
  - { offsetInCU: 0x18AE4, offset: 0xA8E3A, size: 0x8, addend: 0x0, symName: '__ZNKSt3__110__function6__funcIZN13NeuralNetwork5trainEPfS3_E3$_6NS_9allocatorIS4_EEFffEE7__cloneEPNS0_6__baseIS7_EE', symObjAddr: 0x5520, symBinAddr: 0x100011274, symSize: 0x10 }
  - { offsetInCU: 0x18B19, offset: 0xA8E6F, size: 0x8, addend: 0x0, symName: '__ZNKSt3__110__function6__funcIZN13NeuralNetwork5trainEPfS3_E3$_6NS_9allocatorIS4_EEFffEE7__cloneEPNS0_6__baseIS7_EE', symObjAddr: 0x5520, symBinAddr: 0x100011274, symSize: 0x10 }
  - { offsetInCU: 0x18B35, offset: 0xA8E8B, size: 0x8, addend: 0x0, symName: '__ZNKSt3__110__function6__funcIZN13NeuralNetwork5trainEPfS3_E3$_6NS_9allocatorIS4_EEFffEE7__cloneEPNS0_6__baseIS7_EE', symObjAddr: 0x5520, symBinAddr: 0x100011274, symSize: 0x10 }
  - { offsetInCU: 0x18B51, offset: 0xA8EA7, size: 0x8, addend: 0x0, symName: '__ZNSt3__110__function6__funcIZN13NeuralNetwork5trainEPfS3_E3$_6NS_9allocatorIS4_EEFffEE7destroyEv', symObjAddr: 0x5530, symBinAddr: 0x100011284, symSize: 0x4 }
  - { offsetInCU: 0x18B9F, offset: 0xA8EF5, size: 0x8, addend: 0x0, symName: '__ZNSt3__110__function6__funcIZN13NeuralNetwork5trainEPfS3_E3$_6NS_9allocatorIS4_EEFffEE18destroy_deallocateEv', symObjAddr: 0x5534, symBinAddr: 0x100011288, symSize: 0x4 }
  - { offsetInCU: 0x18BD4, offset: 0xA8F2A, size: 0x8, addend: 0x0, symName: '__ZNSt3__110__function6__funcIZN13NeuralNetwork5trainEPfS3_E3$_6NS_9allocatorIS4_EEFffEE18destroy_deallocateEv', symObjAddr: 0x5534, symBinAddr: 0x100011288, symSize: 0x4 }
  - { offsetInCU: 0x18BF6, offset: 0xA8F4C, size: 0x8, addend: 0x0, symName: '__ZNSt3__110__function6__funcIZN13NeuralNetwork5trainEPfS3_E3$_6NS_9allocatorIS4_EEFffEE18destroy_deallocateEv', symObjAddr: 0x5534, symBinAddr: 0x100011288, symSize: 0x4 }
  - { offsetInCU: 0x18C21, offset: 0xA8F77, size: 0x8, addend: 0x0, symName: '__ZNSt3__110__function6__funcIZN13NeuralNetwork5trainEPfS3_E3$_6NS_9allocatorIS4_EEFffEE18destroy_deallocateEv', symObjAddr: 0x5534, symBinAddr: 0x100011288, symSize: 0x4 }
  - { offsetInCU: 0x18C47, offset: 0xA8F9D, size: 0x8, addend: 0x0, symName: '__ZNSt3__110__function6__funcIZN13NeuralNetwork5trainEPfS3_E3$_6NS_9allocatorIS4_EEFffEE18destroy_deallocateEv', symObjAddr: 0x5534, symBinAddr: 0x100011288, symSize: 0x4 }
  - { offsetInCU: 0x18CE3, offset: 0xA9039, size: 0x8, addend: 0x0, symName: '__ZNSt3__110__function6__funcIZN13NeuralNetwork5trainEPfS3_E3$_6NS_9allocatorIS4_EEFffEEclEOf', symObjAddr: 0x5538, symBinAddr: 0x10001128C, symSize: 0x8 }
  - { offsetInCU: 0x18D98, offset: 0xA90EE, size: 0x8, addend: 0x0, symName: '__ZNKSt3__110__function6__funcIZN13NeuralNetwork5trainEPfS3_E3$_6NS_9allocatorIS4_EEFffEE6targetERKSt9type_info', symObjAddr: 0x5540, symBinAddr: 0x100011294, symSize: 0x60 }
  - { offsetInCU: 0x18E1F, offset: 0xA9175, size: 0x8, addend: 0x0, symName: '__ZNKSt3__110__function6__funcIZN13NeuralNetwork5trainEPfS3_E3$_6NS_9allocatorIS4_EEFffEE11target_typeEv', symObjAddr: 0x55A0, symBinAddr: 0x1000112F4, symSize: 0xC }
  - { offsetInCU: 0x18E43, offset: 0xA9199, size: 0x8, addend: 0x0, symName: '__ZNSt3__110__function6__funcIZN13NeuralNetwork5trainEPfS3_E3$_7NS_9allocatorIS4_EEFffEED1Ev', symObjAddr: 0x55AC, symBinAddr: 0x100011300, symSize: 0x4 }
  - { offsetInCU: 0x18E6F, offset: 0xA91C5, size: 0x8, addend: 0x0, symName: '__ZNSt3__110__function6__funcIZN13NeuralNetwork5trainEPfS3_E3$_7NS_9allocatorIS4_EEFffEED0Ev', symObjAddr: 0x55B0, symBinAddr: 0x100011304, symSize: 0x4 }
  - { offsetInCU: 0x18F1F, offset: 0xA9275, size: 0x8, addend: 0x0, symName: '__ZNKSt3__110__function6__funcIZN13NeuralNetwork5trainEPfS3_E3$_7NS_9allocatorIS4_EEFffEE7__cloneEv', symObjAddr: 0x55B4, symBinAddr: 0x100011308, symSize: 0x24 }
  - { offsetInCU: 0x1905F, offset: 0xA93B5, size: 0x8, addend: 0x0, symName: '__ZNKSt3__110__function6__funcIZN13NeuralNetwork5trainEPfS3_E3$_7NS_9allocatorIS4_EEFffEE7__cloneEPNS0_6__baseIS7_EE', symObjAddr: 0x55D8, symBinAddr: 0x10001132C, symSize: 0x10 }
  - { offsetInCU: 0x19094, offset: 0xA93EA, size: 0x8, addend: 0x0, symName: '__ZNKSt3__110__function6__funcIZN13NeuralNetwork5trainEPfS3_E3$_7NS_9allocatorIS4_EEFffEE7__cloneEPNS0_6__baseIS7_EE', symObjAddr: 0x55D8, symBinAddr: 0x10001132C, symSize: 0x10 }
  - { offsetInCU: 0x190B0, offset: 0xA9406, size: 0x8, addend: 0x0, symName: '__ZNKSt3__110__function6__funcIZN13NeuralNetwork5trainEPfS3_E3$_7NS_9allocatorIS4_EEFffEE7__cloneEPNS0_6__baseIS7_EE', symObjAddr: 0x55D8, symBinAddr: 0x10001132C, symSize: 0x10 }
  - { offsetInCU: 0x190CC, offset: 0xA9422, size: 0x8, addend: 0x0, symName: '__ZNSt3__110__function6__funcIZN13NeuralNetwork5trainEPfS3_E3$_7NS_9allocatorIS4_EEFffEE7destroyEv', symObjAddr: 0x55E8, symBinAddr: 0x10001133C, symSize: 0x4 }
  - { offsetInCU: 0x1911A, offset: 0xA9470, size: 0x8, addend: 0x0, symName: '__ZNSt3__110__function6__funcIZN13NeuralNetwork5trainEPfS3_E3$_7NS_9allocatorIS4_EEFffEE18destroy_deallocateEv', symObjAddr: 0x55EC, symBinAddr: 0x100011340, symSize: 0x4 }
  - { offsetInCU: 0x1914F, offset: 0xA94A5, size: 0x8, addend: 0x0, symName: '__ZNSt3__110__function6__funcIZN13NeuralNetwork5trainEPfS3_E3$_7NS_9allocatorIS4_EEFffEE18destroy_deallocateEv', symObjAddr: 0x55EC, symBinAddr: 0x100011340, symSize: 0x4 }
  - { offsetInCU: 0x19171, offset: 0xA94C7, size: 0x8, addend: 0x0, symName: '__ZNSt3__110__function6__funcIZN13NeuralNetwork5trainEPfS3_E3$_7NS_9allocatorIS4_EEFffEE18destroy_deallocateEv', symObjAddr: 0x55EC, symBinAddr: 0x100011340, symSize: 0x4 }
  - { offsetInCU: 0x1919C, offset: 0xA94F2, size: 0x8, addend: 0x0, symName: '__ZNSt3__110__function6__funcIZN13NeuralNetwork5trainEPfS3_E3$_7NS_9allocatorIS4_EEFffEE18destroy_deallocateEv', symObjAddr: 0x55EC, symBinAddr: 0x100011340, symSize: 0x4 }
  - { offsetInCU: 0x191C2, offset: 0xA9518, size: 0x8, addend: 0x0, symName: '__ZNSt3__110__function6__funcIZN13NeuralNetwork5trainEPfS3_E3$_7NS_9allocatorIS4_EEFffEE18destroy_deallocateEv', symObjAddr: 0x55EC, symBinAddr: 0x100011340, symSize: 0x4 }
  - { offsetInCU: 0x1925E, offset: 0xA95B4, size: 0x8, addend: 0x0, symName: '__ZNSt3__110__function6__funcIZN13NeuralNetwork5trainEPfS3_E3$_7NS_9allocatorIS4_EEFffEEclEOf', symObjAddr: 0x55F0, symBinAddr: 0x100011344, symSize: 0x8 }
  - { offsetInCU: 0x192FE, offset: 0xA9654, size: 0x8, addend: 0x0, symName: '__ZNKSt3__110__function6__funcIZN13NeuralNetwork5trainEPfS3_E3$_7NS_9allocatorIS4_EEFffEE6targetERKSt9type_info', symObjAddr: 0x55F8, symBinAddr: 0x10001134C, symSize: 0x60 }
  - { offsetInCU: 0x19385, offset: 0xA96DB, size: 0x8, addend: 0x0, symName: '__ZNKSt3__110__function6__funcIZN13NeuralNetwork5trainEPfS3_E3$_7NS_9allocatorIS4_EEFffEE11target_typeEv', symObjAddr: 0x5658, symBinAddr: 0x1000113AC, symSize: 0xC }
...
